Archive member included to satisfy reference by file (symbol)

/home/evanosky/workspace/kubos-core/bin/native/core.a(kernel_init.o)
                              /home/evanosky/workspace/kubos-core/bin/native/cpu/startup.o (kernel_init)
/home/evanosky/workspace/kubos-core/bin/native/core.a(thread.o)
                              /home/evanosky/workspace/kubos-core/bin/native/core.a(kernel_init.o) (thread_create)
/home/evanosky/workspace/kubos-core/bin/native/core.a(hwtimer.o)
                              /home/evanosky/workspace/kubos-core/bin/native/core.a(kernel_init.o) (hwtimer_init)
/home/evanosky/workspace/kubos-core/bin/native/core.a(lifo.o)
                              /home/evanosky/workspace/kubos-core/bin/native/core.a(hwtimer.o) (lifo_empty)
/home/evanosky/workspace/kubos-core/bin/native/core.a(mutex.o)
                              /home/evanosky/workspace/kubos-core/bin/native/core.a(hwtimer.o) (mutex_lock)
/home/evanosky/workspace/kubos-core/bin/native/core.a(priority_queue.o)
                              /home/evanosky/workspace/kubos-core/bin/native/core.a(mutex.o) (priority_queue_remove_head)
/home/evanosky/workspace/kubos-core/bin/native/core.a(sched.o)
                              /home/evanosky/workspace/kubos-core/bin/native/core.a(thread.o) (sched_num_threads)
/home/evanosky/workspace/kubos-core/bin/native/core.a(atomic.o)
                              /home/evanosky/workspace/kubos-core/bin/native/core.a(mutex.o) (atomic_cas)
/home/evanosky/workspace/kubos-core/bin/native/core.a(bitarithm.o)
                              /home/evanosky/workspace/kubos-core/bin/native/core.a(sched.o) (bitarithm_lsb)
/home/evanosky/workspace/kubos-core/bin/native/core.a(clist.o)
                              /home/evanosky/workspace/kubos-core/bin/native/core.a(sched.o) (clist_add)
/home/evanosky/workspace/kubos-core/bin/native/cpu.a(irq_cpu.o)
                              /home/evanosky/workspace/kubos-core/bin/native/core.a(kernel_init.o) (disableIRQ)
/home/evanosky/workspace/kubos-core/bin/native/cpu.a(lpm_cpu.o)
                              /home/evanosky/workspace/kubos-core/bin/native/core.a(kernel_init.o) (lpm_set)
/home/evanosky/workspace/kubos-core/bin/native/cpu.a(native_cpu.o)
                              /home/evanosky/workspace/kubos-core/bin/native/cpu.a(lpm_cpu.o) (_native_rfds)
/home/evanosky/workspace/kubos-core/bin/native/cpu.a(syscalls.o)
                              /home/evanosky/workspace/kubos-core/bin/native/cpu.a(irq_cpu.o) (real_read)
/home/evanosky/workspace/kubos-core/bin/native/cpu.a(tramp.o)
                              /home/evanosky/workspace/kubos-core/bin/native/cpu.a(irq_cpu.o) (_native_sig_leave_tramp)
/home/evanosky/workspace/kubos-core/bin/native/hwtimer_compat.a(hwtimer_arch.o)
                              /home/evanosky/workspace/kubos-core/bin/native/core.a(hwtimer.o) (hwtimer_arch_init)
/home/evanosky/workspace/kubos-core/bin/native/periph.a(timer.o)
                              /home/evanosky/workspace/kubos-core/bin/native/hwtimer_compat.a(hwtimer_arch.o) (timer_init)
/home/evanosky/workspace/kubos-core/bin/native/vtimer.a(vtimer.o)
                              /home/evanosky/workspace/kubos-core/bin/native/cpu.a(syscalls.o) (vtimer_gettimeofday)
/home/evanosky/workspace/kubos-core/bin/native/native_base.a(native-uart0.o)
                              /home/evanosky/workspace/kubos-core/bin/native/cpu.a(lpm_cpu.o) (_native_handle_uart0_input)
/home/evanosky/workspace/kubos-core/bin/native/native_base.a(board_init.o)
                              /home/evanosky/workspace/kubos-core/bin/native/cpu/startup.o (board_init)
/home/evanosky/workspace/kubos-core/bin/native/native_base.a(native-led.o)
                              /home/evanosky/workspace/kubos-core/bin/native/native_base.a(board_init.o) (_native_LED_GREEN_OFF)
/home/evanosky/workspace/kubos-core/bin/native/kubos-core.a(main.o)
                              /usr/lib/gcc/x86_64-linux-gnu/4.8/../../../../lib32/crt1.o (main)
/home/evanosky/workspace/kubos-core/bin/native/auto_init.a(auto_init.o)
                              /home/evanosky/workspace/kubos-core/bin/native/core.a(kernel_init.o) (auto_init)
/home/evanosky/workspace/kubos-core/bin/native/core.a(msg.o)
                              /home/evanosky/workspace/kubos-core/bin/native/vtimer.a(vtimer.o) (msg_send_int)
/home/evanosky/workspace/kubos-core/bin/native/posix.a(posix_io.o)
                              /home/evanosky/workspace/kubos-core/bin/native/kubos-core.a(main.o) (posix_open)
/home/evanosky/workspace/kubos-core/bin/native/shell.a(shell.o)
                              /home/evanosky/workspace/kubos-core/bin/native/kubos-core.a(main.o) (shell_run)
/home/evanosky/workspace/kubos-core/bin/native/timex.a(timex.o)
                              /home/evanosky/workspace/kubos-core/bin/native/vtimer.a(vtimer.o) (timex_add)
/home/evanosky/workspace/kubos-core/bin/native/uart0.a(uart0.o)
                              /home/evanosky/workspace/kubos-core/bin/native/kubos-core.a(main.o) (uart0_handler_pid)
/home/evanosky/workspace/kubos-core/bin/native/core.a(ringbuffer.o)
                              /home/evanosky/workspace/kubos-core/bin/native/uart0.a(uart0.o) (ringbuffer_add_one)
/home/evanosky/workspace/kubos-core/bin/native/sys.a(chardev_thread.o)
                              /home/evanosky/workspace/kubos-core/bin/native/uart0.a(uart0.o) (chardev_thread_entry)
/usr/lib32/libc_nonshared.a(elf-init.oS)
                              /usr/lib/gcc/x86_64-linux-gnu/4.8/../../../../lib32/crt1.o (__libc_csu_init)

As-needed library included to satisfy reference by file (symbol)

libdl.so.2                    /home/evanosky/workspace/kubos-core/bin/native/cpu.a(syscalls.o) (dlsym@@GLIBC_2.0)

Discarded input sections

 .note.GNU-stack
                0x0000000000000000        0x0 /usr/lib/gcc/x86_64-linux-gnu/4.8/../../../../lib32/crt1.o
 .note.GNU-stack
                0x0000000000000000        0x0 /usr/lib/gcc/x86_64-linux-gnu/4.8/../../../../lib32/crti.o
 .note.GNU-stack
                0x0000000000000000        0x0 /usr/lib/gcc/x86_64-linux-gnu/4.8/32/crtbegin.o
 .note.GNU-stack
                0x0000000000000000        0x0 /home/evanosky/workspace/kubos-core/bin/native/cpu/startup.o
 .note.GNU-stack
                0x0000000000000000        0x0 /home/evanosky/workspace/kubos-core/bin/native/core.a(kernel_init.o)
 .note.GNU-stack
                0x0000000000000000        0x0 /home/evanosky/workspace/kubos-core/bin/native/core.a(thread.o)
 .note.GNU-stack
                0x0000000000000000        0x0 /home/evanosky/workspace/kubos-core/bin/native/core.a(hwtimer.o)
 .note.GNU-stack
                0x0000000000000000        0x0 /home/evanosky/workspace/kubos-core/bin/native/core.a(lifo.o)
 .note.GNU-stack
                0x0000000000000000        0x0 /home/evanosky/workspace/kubos-core/bin/native/core.a(mutex.o)
 .note.GNU-stack
                0x0000000000000000        0x0 /home/evanosky/workspace/kubos-core/bin/native/core.a(priority_queue.o)
 .note.GNU-stack
                0x0000000000000000        0x0 /home/evanosky/workspace/kubos-core/bin/native/core.a(sched.o)
 .note.GNU-stack
                0x0000000000000000        0x0 /home/evanosky/workspace/kubos-core/bin/native/core.a(atomic.o)
 .note.GNU-stack
                0x0000000000000000        0x0 /home/evanosky/workspace/kubos-core/bin/native/core.a(bitarithm.o)
 .note.GNU-stack
                0x0000000000000000        0x0 /home/evanosky/workspace/kubos-core/bin/native/core.a(clist.o)
 .note.GNU-stack
                0x0000000000000000        0x0 /home/evanosky/workspace/kubos-core/bin/native/cpu.a(irq_cpu.o)
 .note.GNU-stack
                0x0000000000000000        0x0 /home/evanosky/workspace/kubos-core/bin/native/cpu.a(lpm_cpu.o)
 .note.GNU-stack
                0x0000000000000000        0x0 /home/evanosky/workspace/kubos-core/bin/native/cpu.a(native_cpu.o)
 .note.GNU-stack
                0x0000000000000000        0x0 /home/evanosky/workspace/kubos-core/bin/native/cpu.a(syscalls.o)
 .note.GNU-stack
                0x0000000000000000        0x0 /home/evanosky/workspace/kubos-core/bin/native/hwtimer_compat.a(hwtimer_arch.o)
 .note.GNU-stack
                0x0000000000000000        0x0 /home/evanosky/workspace/kubos-core/bin/native/periph.a(timer.o)
 .note.GNU-stack
                0x0000000000000000        0x0 /home/evanosky/workspace/kubos-core/bin/native/vtimer.a(vtimer.o)
 .note.GNU-stack
                0x0000000000000000        0x0 /home/evanosky/workspace/kubos-core/bin/native/native_base.a(native-uart0.o)
 .note.GNU-stack
                0x0000000000000000        0x0 /home/evanosky/workspace/kubos-core/bin/native/native_base.a(board_init.o)
 .note.GNU-stack
                0x0000000000000000        0x0 /home/evanosky/workspace/kubos-core/bin/native/native_base.a(native-led.o)
 .note.GNU-stack
                0x0000000000000000        0x0 /home/evanosky/workspace/kubos-core/bin/native/kubos-core.a(main.o)
 .note.GNU-stack
                0x0000000000000000        0x0 /home/evanosky/workspace/kubos-core/bin/native/auto_init.a(auto_init.o)
 .note.GNU-stack
                0x0000000000000000        0x0 /home/evanosky/workspace/kubos-core/bin/native/core.a(msg.o)
 .note.GNU-stack
                0x0000000000000000        0x0 /home/evanosky/workspace/kubos-core/bin/native/posix.a(posix_io.o)
 .note.GNU-stack
                0x0000000000000000        0x0 /home/evanosky/workspace/kubos-core/bin/native/shell.a(shell.o)
 .note.GNU-stack
                0x0000000000000000        0x0 /home/evanosky/workspace/kubos-core/bin/native/timex.a(timex.o)
 .note.GNU-stack
                0x0000000000000000        0x0 /home/evanosky/workspace/kubos-core/bin/native/uart0.a(uart0.o)
 .note.GNU-stack
                0x0000000000000000        0x0 /home/evanosky/workspace/kubos-core/bin/native/core.a(ringbuffer.o)
 .note.GNU-stack
                0x0000000000000000        0x0 /home/evanosky/workspace/kubos-core/bin/native/sys.a(chardev_thread.o)
 .group         0x0000000000000000        0x8 /usr/lib32/libc_nonshared.a(elf-init.oS)
 .text.__x86.get_pc_thunk.bx
                0x0000000000000000        0x4 /usr/lib32/libc_nonshared.a(elf-init.oS)
 .note.GNU-stack
                0x0000000000000000        0x0 /usr/lib32/libc_nonshared.a(elf-init.oS)
 .note.GNU-stack
                0x0000000000000000        0x0 /usr/lib/gcc/x86_64-linux-gnu/4.8/32/crtend.o
 .note.GNU-stack
                0x0000000000000000        0x0 /usr/lib/gcc/x86_64-linux-gnu/4.8/../../../../lib32/crtn.o

Memory Configuration

Name             Origin             Length             Attributes
*default*        0x0000000000000000 0xffffffffffffffff

Linker script and memory map

LOAD /usr/lib/gcc/x86_64-linux-gnu/4.8/../../../../lib32/crt1.o
LOAD /usr/lib/gcc/x86_64-linux-gnu/4.8/../../../../lib32/crti.o
LOAD /usr/lib/gcc/x86_64-linux-gnu/4.8/32/crtbegin.o
LOAD /home/evanosky/workspace/kubos-core/bin/native/cpu/startup.o
START GROUP
LOAD /home/evanosky/workspace/kubos-core/bin/native/auto_init.a
LOAD /home/evanosky/workspace/kubos-core/bin/native/core.a
LOAD /home/evanosky/workspace/kubos-core/bin/native/cpu.a
LOAD /home/evanosky/workspace/kubos-core/bin/native/hwtimer_compat.a
LOAD /home/evanosky/workspace/kubos-core/bin/native/periph.a
LOAD /home/evanosky/workspace/kubos-core/bin/native/posix.a
LOAD /home/evanosky/workspace/kubos-core/bin/native/shell.a
LOAD /home/evanosky/workspace/kubos-core/bin/native/sys.a
LOAD /home/evanosky/workspace/kubos-core/bin/native/timex.a
LOAD /home/evanosky/workspace/kubos-core/bin/native/uart0.a
LOAD /home/evanosky/workspace/kubos-core/bin/native/vtimer.a
LOAD /home/evanosky/workspace/kubos-core/bin/native/native_base.a
LOAD /home/evanosky/workspace/kubos-core/bin/native/kubos-core.a
LOAD /usr/lib/gcc/x86_64-linux-gnu/4.8/../../../../lib32/libm.so
END GROUP
LOAD /usr/lib/gcc/x86_64-linux-gnu/4.8/../../../../lib32/libdl.so
LOAD /usr/lib/gcc/x86_64-linux-gnu/4.8/32/libgcc.a
LOAD /usr/lib/gcc/x86_64-linux-gnu/4.8/32/libgcc_s.so
LOAD /usr/lib/gcc/x86_64-linux-gnu/4.8/../../../../lib32/libc.so
START GROUP
LOAD /lib32/libc.so.6
LOAD /usr/lib32/libc_nonshared.a
LOAD /lib32/ld-linux.so.2
END GROUP
LOAD /usr/lib/gcc/x86_64-linux-gnu/4.8/32/libgcc.a
LOAD /usr/lib/gcc/x86_64-linux-gnu/4.8/32/libgcc_s.so
LOAD /usr/lib/gcc/x86_64-linux-gnu/4.8/32/crtend.o
LOAD /usr/lib/gcc/x86_64-linux-gnu/4.8/../../../../lib32/crtn.o
                0x0000000008048000                PROVIDE (__executable_start, 0x8048000)
                0x0000000008048154                . = (0x8048000 + SIZEOF_HEADERS)

.interp         0x0000000008048154       0x13
 *(.interp)
 .interp        0x0000000008048154       0x13 /usr/lib/gcc/x86_64-linux-gnu/4.8/../../../../lib32/crt1.o

.note.ABI-tag   0x0000000008048168       0x20
 .note.ABI-tag  0x0000000008048168       0x20 /usr/lib/gcc/x86_64-linux-gnu/4.8/../../../../lib32/crt1.o

.note.gnu.build-id
                0x0000000008048188       0x24
 *(.note.gnu.build-id)
 .note.gnu.build-id
                0x0000000008048188       0x24 /usr/lib/gcc/x86_64-linux-gnu/4.8/../../../../lib32/crt1.o

.hash
 *(.hash)

.gnu.hash       0x00000000080481ac       0xac
 *(.gnu.hash)
 .gnu.hash      0x00000000080481ac       0xac /usr/lib/gcc/x86_64-linux-gnu/4.8/../../../../lib32/crt1.o

.dynsym         0x0000000008048258      0x310
 *(.dynsym)
 .dynsym        0x0000000008048258      0x310 /usr/lib/gcc/x86_64-linux-gnu/4.8/../../../../lib32/crt1.o

.dynstr         0x0000000008048568      0x1f5
 *(.dynstr)
 .dynstr        0x0000000008048568      0x1f5 /usr/lib/gcc/x86_64-linux-gnu/4.8/../../../../lib32/crt1.o

.gnu.version    0x000000000804875e       0x62
 *(.gnu.version)
 .gnu.version   0x000000000804875e       0x62 /usr/lib/gcc/x86_64-linux-gnu/4.8/../../../../lib32/crt1.o

.gnu.version_d  0x00000000080487c0        0x0
 *(.gnu.version_d)
 .gnu.version_d
                0x0000000000000000        0x0 /usr/lib/gcc/x86_64-linux-gnu/4.8/../../../../lib32/crt1.o

.gnu.version_r  0x00000000080487c0       0x60
 *(.gnu.version_r)
 .gnu.version_r
                0x00000000080487c0       0x60 /usr/lib/gcc/x86_64-linux-gnu/4.8/../../../../lib32/crt1.o

.rel.dyn        0x0000000008048820        0x8
 *(.rel.init)
 *(.rel.text .rel.text.* .rel.gnu.linkonce.t.*)
 .rel.text      0x0000000000000000        0x0 /usr/lib/gcc/x86_64-linux-gnu/4.8/../../../../lib32/crt1.o
 .rel.text._native_null_in
                0x0000000000000000        0x0 /usr/lib/gcc/x86_64-linux-gnu/4.8/../../../../lib32/crt1.o
 .rel.text._native_log_stdout
                0x0000000000000000        0x0 /usr/lib/gcc/x86_64-linux-gnu/4.8/../../../../lib32/crt1.o
 .rel.text._native_log_stderr
                0x0000000000000000        0x0 /usr/lib/gcc/x86_64-linux-gnu/4.8/../../../../lib32/crt1.o
 .rel.text.daemonize
                0x0000000000000000        0x0 /usr/lib/gcc/x86_64-linux-gnu/4.8/../../../../lib32/crt1.o
 .rel.text.filter_daemonize_argv
                0x0000000000000000        0x0 /usr/lib/gcc/x86_64-linux-gnu/4.8/../../../../lib32/crt1.o
 .rel.text.usage_exit
                0x0000000000000000        0x0 /usr/lib/gcc/x86_64-linux-gnu/4.8/../../../../lib32/crt1.o
 .rel.text.startup
                0x0000000000000000        0x0 /usr/lib/gcc/x86_64-linux-gnu/4.8/../../../../lib32/crt1.o
 .rel.text.main_trampoline
                0x0000000000000000        0x0 /usr/lib/gcc/x86_64-linux-gnu/4.8/../../../../lib32/crt1.o
 .rel.text.idle_thread
                0x0000000000000000        0x0 /usr/lib/gcc/x86_64-linux-gnu/4.8/../../../../lib32/crt1.o
 .rel.text.kernel_init
                0x0000000000000000        0x0 /usr/lib/gcc/x86_64-linux-gnu/4.8/../../../../lib32/crt1.o
 .rel.text.thread_get
                0x0000000000000000        0x0 /usr/lib/gcc/x86_64-linux-gnu/4.8/../../../../lib32/crt1.o
 .rel.text.thread_sleep
                0x0000000000000000        0x0 /usr/lib/gcc/x86_64-linux-gnu/4.8/../../../../lib32/crt1.o
 .rel.text.thread_wakeup
                0x0000000000000000        0x0 /usr/lib/gcc/x86_64-linux-gnu/4.8/../../../../lib32/crt1.o
 .rel.text.thread_yield
                0x0000000000000000        0x0 /usr/lib/gcc/x86_64-linux-gnu/4.8/../../../../lib32/crt1.o
 .rel.text.thread_create
                0x0000000000000000        0x0 /usr/lib/gcc/x86_64-linux-gnu/4.8/../../../../lib32/crt1.o
 .rel.text.multiplexer
                0x0000000000000000        0x0 /usr/lib/gcc/x86_64-linux-gnu/4.8/../../../../lib32/crt1.o
 .rel.text.hwtimer_releasemutex
                0x0000000000000000        0x0 /usr/lib/gcc/x86_64-linux-gnu/4.8/../../../../lib32/crt1.o
 .rel.text.hwtimer_spin
                0x0000000000000000        0x0 /usr/lib/gcc/x86_64-linux-gnu/4.8/../../../../lib32/crt1.o
 .rel.text.hwtimer_init_comp
                0x0000000000000000        0x0 /usr/lib/gcc/x86_64-linux-gnu/4.8/../../../../lib32/crt1.o
 .rel.text.hwtimer_active
                0x0000000000000000        0x0 /usr/lib/gcc/x86_64-linux-gnu/4.8/../../../../lib32/crt1.o
 .rel.text.hwtimer_now
                0x0000000000000000        0x0 /usr/lib/gcc/x86_64-linux-gnu/4.8/../../../../lib32/crt1.o
 .rel.text.hwtimer_wait
                0x0000000000000000        0x0 /usr/lib/gcc/x86_64-linux-gnu/4.8/../../../../lib32/crt1.o
 .rel.text._hwtimer_set
                0x0000000000000000        0x0 /usr/lib/gcc/x86_64-linux-gnu/4.8/../../../../lib32/crt1.o
 .rel.text.hwtimer_remove
                0x0000000000000000        0x0 /usr/lib/gcc/x86_64-linux-gnu/4.8/../../../../lib32/crt1.o
 .rel.text.atomic_set_to_one
                0x0000000000000000        0x0 /usr/lib/gcc/x86_64-linux-gnu/4.8/../../../../lib32/crt1.o
 .rel.text.mutex_wait
                0x0000000000000000        0x0 /usr/lib/gcc/x86_64-linux-gnu/4.8/../../../../lib32/crt1.o
 .rel.text.mutex_unlock
                0x0000000000000000        0x0 /usr/lib/gcc/x86_64-linux-gnu/4.8/../../../../lib32/crt1.o
 .rel.text.mutex_unlock_and_sleep
                0x0000000000000000        0x0 /usr/lib/gcc/x86_64-linux-gnu/4.8/../../../../lib32/crt1.o
 .rel.text.sched_run
                0x0000000000000000        0x0 /usr/lib/gcc/x86_64-linux-gnu/4.8/../../../../lib32/crt1.o
 .rel.text.sched_set_status
                0x0000000000000000        0x0 /usr/lib/gcc/x86_64-linux-gnu/4.8/../../../../lib32/crt1.o
 .rel.text.sched_switch
                0x0000000000000000        0x0 /usr/lib/gcc/x86_64-linux-gnu/4.8/../../../../lib32/crt1.o
 .rel.text.sched_task_exit
                0x0000000000000000        0x0 /usr/lib/gcc/x86_64-linux-gnu/4.8/../../../../lib32/crt1.o
 .rel.text.atomic_cas
                0x0000000000000000        0x0 /usr/lib/gcc/x86_64-linux-gnu/4.8/../../../../lib32/crt1.o
 .rel.text.print_thread_sigmask
                0x0000000000000000        0x0 /usr/lib/gcc/x86_64-linux-gnu/4.8/../../../../lib32/crt1.o
 .rel.text.native_print_signals
                0x0000000000000000        0x0 /usr/lib/gcc/x86_64-linux-gnu/4.8/../../../../lib32/crt1.o
 .rel.text.disableIRQ
                0x0000000000000000        0x0 /usr/lib/gcc/x86_64-linux-gnu/4.8/../../../../lib32/crt1.o
 .rel.text.enableIRQ
                0x0000000000000000        0x0 /usr/lib/gcc/x86_64-linux-gnu/4.8/../../../../lib32/crt1.o
 .rel.text._native_popsig
                0x0000000000000000        0x0 /usr/lib/gcc/x86_64-linux-gnu/4.8/../../../../lib32/crt1.o
 .rel.text.native_irq_handler
                0x0000000000000000        0x0 /usr/lib/gcc/x86_64-linux-gnu/4.8/../../../../lib32/crt1.o
 .rel.text.native_isr_entry
                0x0000000000000000        0x0 /usr/lib/gcc/x86_64-linux-gnu/4.8/../../../../lib32/crt1.o
 .rel.text.set_signal_handler
                0x0000000000000000        0x0 /usr/lib/gcc/x86_64-linux-gnu/4.8/../../../../lib32/crt1.o
 .rel.text.native_shutdown
                0x0000000000000000        0x0 /usr/lib/gcc/x86_64-linux-gnu/4.8/../../../../lib32/crt1.o
 .rel.text.native_interrupt_init
                0x0000000000000000        0x0 /usr/lib/gcc/x86_64-linux-gnu/4.8/../../../../lib32/crt1.o
 .rel.text._native_lpm_sleep
                0x0000000000000000        0x0 /usr/lib/gcc/x86_64-linux-gnu/4.8/../../../../lib32/crt1.o
 .rel.text.lpm_set
                0x0000000000000000        0x0 /usr/lib/gcc/x86_64-linux-gnu/4.8/../../../../lib32/crt1.o
 .rel.text.reboot_arch
                0x0000000000000000        0x0 /usr/lib/gcc/x86_64-linux-gnu/4.8/../../../../lib32/crt1.o
 .rel.text.thread_stack_init
                0x0000000000000000        0x0 /usr/lib/gcc/x86_64-linux-gnu/4.8/../../../../lib32/crt1.o
 .rel.text.isr_cpu_switch_context_exit
                0x0000000000000000        0x0 /usr/lib/gcc/x86_64-linux-gnu/4.8/../../../../lib32/crt1.o
 .rel.text.cpu_switch_context_exit
                0x0000000000000000        0x0 /usr/lib/gcc/x86_64-linux-gnu/4.8/../../../../lib32/crt1.o
 .rel.text.isr_thread_yield
                0x0000000000000000        0x0 /usr/lib/gcc/x86_64-linux-gnu/4.8/../../../../lib32/crt1.o
 .rel.text.thread_yield_higher
                0x0000000000000000        0x0 /usr/lib/gcc/x86_64-linux-gnu/4.8/../../../../lib32/crt1.o
 .rel.text.native_cpu_init
                0x0000000000000000        0x0 /usr/lib/gcc/x86_64-linux-gnu/4.8/../../../../lib32/crt1.o
 .rel.text._native_syscall_leave
                0x0000000000000000        0x0 /usr/lib/gcc/x86_64-linux-gnu/4.8/../../../../lib32/crt1.o
 .rel.text.calloc
                0x0000000000000000        0x0 /usr/lib/gcc/x86_64-linux-gnu/4.8/../../../../lib32/crt1.o
 .rel.text.puts
                0x0000000000000000        0x0 /usr/lib/gcc/x86_64-linux-gnu/4.8/../../../../lib32/crt1.o
 .rel.text.make_message
                0x0000000000000000        0x0 /usr/lib/gcc/x86_64-linux-gnu/4.8/../../../../lib32/crt1.o
 .rel.text.printf
                0x0000000000000000        0x0 /usr/lib/gcc/x86_64-linux-gnu/4.8/../../../../lib32/crt1.o
 .rel.text.vprintf
                0x0000000000000000        0x0 /usr/lib/gcc/x86_64-linux-gnu/4.8/../../../../lib32/crt1.o
 .rel.text.vwarn
                0x0000000000000000        0x0 /usr/lib/gcc/x86_64-linux-gnu/4.8/../../../../lib32/crt1.o
 .rel.text.vwarnx
                0x0000000000000000        0x0 /usr/lib/gcc/x86_64-linux-gnu/4.8/../../../../lib32/crt1.o
 .rel.text._gettimeofday
                0x0000000000000000        0x0 /usr/lib/gcc/x86_64-linux-gnu/4.8/../../../../lib32/crt1.o
 .rel.text._native_init_syscalls
                0x0000000000000000        0x0 /usr/lib/gcc/x86_64-linux-gnu/4.8/../../../../lib32/crt1.o
 .rel.text.hwtimer_arch_init
                0x0000000000000000        0x0 /usr/lib/gcc/x86_64-linux-gnu/4.8/../../../../lib32/crt1.o
 .rel.text.hwtimer_arch_enable_interrupt
                0x0000000000000000        0x0 /usr/lib/gcc/x86_64-linux-gnu/4.8/../../../../lib32/crt1.o
 .rel.text.hwtimer_arch_disable_interrupt
                0x0000000000000000        0x0 /usr/lib/gcc/x86_64-linux-gnu/4.8/../../../../lib32/crt1.o
 .rel.text.hwtimer_arch_set
                0x0000000000000000        0x0 /usr/lib/gcc/x86_64-linux-gnu/4.8/../../../../lib32/crt1.o
 .rel.text.hwtimer_arch_set_absolute
                0x0000000000000000        0x0 /usr/lib/gcc/x86_64-linux-gnu/4.8/../../../../lib32/crt1.o
 .rel.text.hwtimer_arch_unset
                0x0000000000000000        0x0 /usr/lib/gcc/x86_64-linux-gnu/4.8/../../../../lib32/crt1.o
 .rel.text.hwtimer_arch_now
                0x0000000000000000        0x0 /usr/lib/gcc/x86_64-linux-gnu/4.8/../../../../lib32/crt1.o
 .rel.text.do_timer_set
                0x0000000000000000        0x0 /usr/lib/gcc/x86_64-linux-gnu/4.8/../../../../lib32/crt1.o
 .rel.text.vtimer_callback_msg
                0x0000000000000000        0x0 /usr/lib/gcc/x86_64-linux-gnu/4.8/../../../../lib32/crt1.o
 .rel.text.vtimer_set
                0x0000000000000000        0x0 /usr/lib/gcc/x86_64-linux-gnu/4.8/../../../../lib32/crt1.o
 .rel.text.vtimer_get_localtime
                0x0000000000000000        0x0 /usr/lib/gcc/x86_64-linux-gnu/4.8/../../../../lib32/crt1.o
 .rel.text.vtimer_usleep
                0x0000000000000000        0x0 /usr/lib/gcc/x86_64-linux-gnu/4.8/../../../../lib32/crt1.o
 .rel.text.vtimer_msg_receive_timeout
                0x0000000000000000        0x0 /usr/lib/gcc/x86_64-linux-gnu/4.8/../../../../lib32/crt1.o
 .rel.text.init_tcp_socket
                0x0000000000000000        0x0 /usr/lib/gcc/x86_64-linux-gnu/4.8/../../../../lib32/crt1.o
 .rel.text.init_unix_socket
                0x0000000000000000        0x0 /usr/lib/gcc/x86_64-linux-gnu/4.8/../../../../lib32/crt1.o
 .rel.text.handle_uart_in
                0x0000000000000000        0x0 /usr/lib/gcc/x86_64-linux-gnu/4.8/../../../../lib32/crt1.o
 .rel.text.handle_uart_sock
                0x0000000000000000        0x0 /usr/lib/gcc/x86_64-linux-gnu/4.8/../../../../lib32/crt1.o
 .rel.text._native_init_uart0
                0x0000000000000000        0x0 /usr/lib/gcc/x86_64-linux-gnu/4.8/../../../../lib32/crt1.o
 .rel.text.board_init
                0x0000000000000000        0x0 /usr/lib/gcc/x86_64-linux-gnu/4.8/../../../../lib32/crt1.o
 .rel.text.main
                0x0000000000000000        0x0 /usr/lib/gcc/x86_64-linux-gnu/4.8/../../../../lib32/crt1.o
 .rel.text.auto_init
                0x0000000000000000        0x0 /usr/lib/gcc/x86_64-linux-gnu/4.8/../../../../lib32/crt1.o
 .rel.text.find_handler
                0x0000000000000000        0x0 /usr/lib/gcc/x86_64-linux-gnu/4.8/../../../../lib32/crt1.o
 .rel.text.handle_input_line
                0x0000000000000000        0x0 /usr/lib/gcc/x86_64-linux-gnu/4.8/../../../../lib32/crt1.o
 .rel.text.board_uart0_init
                0x0000000000000000        0x0 /usr/lib/gcc/x86_64-linux-gnu/4.8/../../../../lib32/crt1.o
 .rel.text.uart0_handle_incoming
                0x0000000000000000        0x0 /usr/lib/gcc/x86_64-linux-gnu/4.8/../../../../lib32/crt1.o
 .rel.text.ringbuffer_get
                0x0000000000000000        0x0 /usr/lib/gcc/x86_64-linux-gnu/4.8/../../../../lib32/crt1.o
 *(.rel.fini)
 *(.rel.rodata .rel.rodata.* .rel.gnu.linkonce.r.*)
 *(.rel.data.rel.ro .rel.data.rel.ro.* .rel.gnu.linkonce.d.rel.ro.*)
 *(.rel.data .rel.data.* .rel.gnu.linkonce.d.*)
 *(.rel.tdata .rel.tdata.* .rel.gnu.linkonce.td.*)
 *(.rel.tbss .rel.tbss.* .rel.gnu.linkonce.tb.*)
 *(.rel.ctors)
 *(.rel.dtors)
 *(.rel.got)
 .rel.got       0x0000000008048820        0x8 /usr/lib/gcc/x86_64-linux-gnu/4.8/../../../../lib32/crt1.o
 *(.rel.bss .rel.bss.* .rel.gnu.linkonce.b.*)
 .rel.bss       0x0000000000000000        0x0 /usr/lib/gcc/x86_64-linux-gnu/4.8/../../../../lib32/crt1.o
 *(.rel.ifunc)

.rel.plt        0x0000000008048828       0xd8
 *(.rel.plt)
 .rel.plt       0x0000000008048828       0xd8 /usr/lib/gcc/x86_64-linux-gnu/4.8/../../../../lib32/crt1.o
                0x0000000008048900                PROVIDE (__rel_iplt_start, .)
 *(.rel.iplt)
 .rel.iplt      0x0000000000000000        0x0 /usr/lib/gcc/x86_64-linux-gnu/4.8/../../../../lib32/crt1.o
                0x0000000008048900                PROVIDE (__rel_iplt_end, .)

.init           0x0000000008048900       0x23
 *(SORT(.init))
 .init          0x0000000008048900       0x1e /usr/lib/gcc/x86_64-linux-gnu/4.8/../../../../lib32/crti.o
                0x0000000008048900                _init
 .init          0x000000000804891e        0x5 /usr/lib/gcc/x86_64-linux-gnu/4.8/../../../../lib32/crtn.o

.plt            0x0000000008048930      0x1c0
 *(.plt)
 .plt           0x0000000008048930      0x1c0 /usr/lib/gcc/x86_64-linux-gnu/4.8/../../../../lib32/crt1.o
                0x0000000008048940                strcmp@@GLIBC_2.0
                0x0000000008048950                sigprocmask@@GLIBC_2.0
                0x0000000008048960                memcpy@@GLIBC_2.0
                0x0000000008048970                setcontext@@GLIBC_2.0
                0x0000000008048980                __stack_chk_fail@@GLIBC_2.4
                0x0000000008048990                sigpending@@GLIBC_2.0
                0x00000000080489a0                sigismember@@GLIBC_2.0
                0x00000000080489b0                strsignal@@GLIBC_2.0
                0x00000000080489c0                strerror@@GLIBC_2.0
                0x00000000080489e0                strlen@@GLIBC_2.0
                0x00000000080489f0                __libc_start_main@@GLIBC_2.0
                0x0000000008048a00                sigdelset@@GLIBC_2.0
                0x0000000008048a10                atol@@GLIBC_2.0
                0x0000000008048a20                getcontext@@GLIBC_2.1
                0x0000000008048a30                sigaddset@@GLIBC_2.0
                0x0000000008048a40                dlsym@@GLIBC_2.0
                0x0000000008048a50                sigfillset@@GLIBC_2.0
                0x0000000008048a60                memset@@GLIBC_2.0
                0x0000000008048a70                snprintf@@GLIBC_2.0
                0x0000000008048a80                swapcontext@@GLIBC_2.1
                0x0000000008048a90                __errno_location@@GLIBC_2.0
                0x0000000008048aa0                makecontext@@GLIBC_2.1
                0x0000000008048ab0                sigemptyset@@GLIBC_2.0
                0x0000000008048ac0                vsnprintf@@GLIBC_2.0
                0x0000000008048ad0                sigaction@@GLIBC_2.0
                0x0000000008048ae0                sigaltstack@@GLIBC_2.0
 *(.iplt)
 .iplt          0x0000000000000000        0x0 /usr/lib/gcc/x86_64-linux-gnu/4.8/../../../../lib32/crt1.o

.text           0x0000000008048af0     0x6192
 *(.text.unlikely .text.*_unlikely .text.unlikely.*)
 *(.text.exit .text.exit.*)
 *(.text.startup .text.startup.*)
 .text.startup  0x0000000008048af0      0x419 /home/evanosky/workspace/kubos-core/bin/native/cpu/startup.o
 *(.text.hot .text.hot.*)
 *(.text .stub .text.* .gnu.linkonce.t.*)
 .text          0x0000000008048f09       0x22 /usr/lib/gcc/x86_64-linux-gnu/4.8/../../../../lib32/crt1.o
                0x0000000008048f09                _start
 .text          0x0000000008048f2b        0x0 /usr/lib/gcc/x86_64-linux-gnu/4.8/../../../../lib32/crti.o
 *fill*         0x0000000008048f2b        0x5 
 .gnu.linkonce.t.__x86.get_pc_thunk.bx
                0x0000000008048f30        0x4 /usr/lib/gcc/x86_64-linux-gnu/4.8/../../../../lib32/crti.o
                0x0000000008048f30                __x86.get_pc_thunk.bx
 *fill*         0x0000000008048f34        0xc 
 .text          0x0000000008048f40       0xbd /usr/lib/gcc/x86_64-linux-gnu/4.8/32/crtbegin.o
 .text          0x0000000008048ffd        0x0 /home/evanosky/workspace/kubos-core/bin/native/cpu/startup.o
 .text._native_null_in
                0x0000000008048ffd       0x79 /home/evanosky/workspace/kubos-core/bin/native/cpu/startup.o
                0x0000000008048ffd                _native_null_in
 .text._native_log_stdout
                0x0000000008049076      0x17e /home/evanosky/workspace/kubos-core/bin/native/cpu/startup.o
                0x0000000008049076                _native_log_stdout
 .text._native_log_stderr
                0x00000000080491f4      0x169 /home/evanosky/workspace/kubos-core/bin/native/cpu/startup.o
                0x00000000080491f4                _native_log_stderr
 .text.daemonize
                0x000000000804935d       0xc2 /home/evanosky/workspace/kubos-core/bin/native/cpu/startup.o
                0x000000000804935d                daemonize
 .text.filter_daemonize_argv
                0x000000000804941f       0x6b /home/evanosky/workspace/kubos-core/bin/native/cpu/startup.o
 .text.usage_exit
                0x000000000804948a       0x98 /home/evanosky/workspace/kubos-core/bin/native/cpu/startup.o
                0x000000000804948a                usage_exit
 .text          0x0000000008049522        0x0 /home/evanosky/workspace/kubos-core/bin/native/core.a(kernel_init.o)
 .text.main_trampoline
                0x0000000008049522       0x17 /home/evanosky/workspace/kubos-core/bin/native/core.a(kernel_init.o)
 .text.idle_thread
                0x0000000008049539       0x2b /home/evanosky/workspace/kubos-core/bin/native/core.a(kernel_init.o)
 .text.kernel_init
                0x0000000008049564       0xaf /home/evanosky/workspace/kubos-core/bin/native/core.a(kernel_init.o)
                0x0000000008049564                kernel_init
 .text          0x0000000008049613        0x0 /home/evanosky/workspace/kubos-core/bin/native/core.a(thread.o)
 .text.clist_advance
                0x0000000008049613       0x11 /home/evanosky/workspace/kubos-core/bin/native/core.a(thread.o)
 .text.cib_init
                0x0000000008049624       0x33 /home/evanosky/workspace/kubos-core/bin/native/core.a(thread.o)
 .text.pid_is_valid
                0x0000000008049657       0x29 /home/evanosky/workspace/kubos-core/bin/native/core.a(thread.o)
 .text.thread_get
                0x0000000008049680       0x31 /home/evanosky/workspace/kubos-core/bin/native/core.a(thread.o)
                0x0000000008049680                thread_get
 .text.thread_getstatus
                0x00000000080496b1       0x35 /home/evanosky/workspace/kubos-core/bin/native/core.a(thread.o)
                0x00000000080496b1                thread_getstatus
 .text.thread_sleep
                0x00000000080496e6       0x40 /home/evanosky/workspace/kubos-core/bin/native/core.a(thread.o)
                0x00000000080496e6                thread_sleep
 .text.thread_wakeup
                0x0000000008049726       0x7f /home/evanosky/workspace/kubos-core/bin/native/core.a(thread.o)
                0x0000000008049726                thread_wakeup
 .text.thread_yield
                0x00000000080497a5       0x4f /home/evanosky/workspace/kubos-core/bin/native/core.a(thread.o)
                0x00000000080497a5                thread_yield
 .text.thread_create
                0x00000000080497f4      0x1d4 /home/evanosky/workspace/kubos-core/bin/native/core.a(thread.o)
                0x00000000080497f4                thread_create
 .text          0x00000000080499c8        0x0 /home/evanosky/workspace/kubos-core/bin/native/core.a(hwtimer.o)
 .text.multiplexer
                0x00000000080499c8       0x41 /home/evanosky/workspace/kubos-core/bin/native/core.a(hwtimer.o)
 .text.hwtimer_releasemutex
                0x0000000008049a09       0x13 /home/evanosky/workspace/kubos-core/bin/native/core.a(hwtimer.o)
 .text.hwtimer_spin
                0x0000000008049a1c       0x39 /home/evanosky/workspace/kubos-core/bin/native/core.a(hwtimer.o)
                0x0000000008049a1c                hwtimer_spin
 .text.hwtimer_init
                0x0000000008049a55       0x14 /home/evanosky/workspace/kubos-core/bin/native/core.a(hwtimer.o)
                0x0000000008049a55                hwtimer_init
 .text.hwtimer_init_comp
                0x0000000008049a69       0x55 /home/evanosky/workspace/kubos-core/bin/native/core.a(hwtimer.o)
                0x0000000008049a69                hwtimer_init_comp
 .text.hwtimer_active
                0x0000000008049abe       0x1c /home/evanosky/workspace/kubos-core/bin/native/core.a(hwtimer.o)
                0x0000000008049abe                hwtimer_active
 .text.hwtimer_now
                0x0000000008049ada        0xd /home/evanosky/workspace/kubos-core/bin/native/core.a(hwtimer.o)
                0x0000000008049ada                hwtimer_now
 .text.hwtimer_wait
                0x0000000008049ae7       0x89 /home/evanosky/workspace/kubos-core/bin/native/core.a(hwtimer.o)
                0x0000000008049ae7                hwtimer_wait
 .text._hwtimer_set
                0x0000000008049b70       0xac /home/evanosky/workspace/kubos-core/bin/native/core.a(hwtimer.o)
 .text.hwtimer_set
                0x0000000008049c1c       0x29 /home/evanosky/workspace/kubos-core/bin/native/core.a(hwtimer.o)
                0x0000000008049c1c                hwtimer_set
 .text.hwtimer_set_absolute
                0x0000000008049c45       0x29 /home/evanosky/workspace/kubos-core/bin/native/core.a(hwtimer.o)
                0x0000000008049c45                hwtimer_set_absolute
 .text.hwtimer_remove
                0x0000000008049c6e       0x5a /home/evanosky/workspace/kubos-core/bin/native/core.a(hwtimer.o)
                0x0000000008049c6e                hwtimer_remove
 .text          0x0000000008049cc8        0x0 /home/evanosky/workspace/kubos-core/bin/native/core.a(lifo.o)
 .text.lifo_empty
                0x0000000008049cc8       0x13 /home/evanosky/workspace/kubos-core/bin/native/core.a(lifo.o)
                0x0000000008049cc8                lifo_empty
 .text.lifo_init
                0x0000000008049cdb       0x32 /home/evanosky/workspace/kubos-core/bin/native/core.a(lifo.o)
                0x0000000008049cdb                lifo_init
 .text.lifo_insert
                0x0000000008049d0d       0x2f /home/evanosky/workspace/kubos-core/bin/native/core.a(lifo.o)
                0x0000000008049d0d                lifo_insert
 .text.lifo_get
                0x0000000008049d3c       0x32 /home/evanosky/workspace/kubos-core/bin/native/core.a(lifo.o)
                0x0000000008049d3c                lifo_get
 .text          0x0000000008049d6e        0x0 /home/evanosky/workspace/kubos-core/bin/native/core.a(mutex.o)
 .text.atomic_set_to_one
                0x0000000008049d6e       0x3c /home/evanosky/workspace/kubos-core/bin/native/core.a(mutex.o)
 .text.mutex_trylock
                0x0000000008049daa       0x13 /home/evanosky/workspace/kubos-core/bin/native/core.a(mutex.o)
                0x0000000008049daa                mutex_trylock
 .text.mutex_lock
                0x0000000008049dbd       0x22 /home/evanosky/workspace/kubos-core/bin/native/core.a(mutex.o)
                0x0000000008049dbd                mutex_lock
 .text.mutex_wait
                0x0000000008049ddf       0x84 /home/evanosky/workspace/kubos-core/bin/native/core.a(mutex.o)
 .text.mutex_unlock
                0x0000000008049e63       0x91 /home/evanosky/workspace/kubos-core/bin/native/core.a(mutex.o)
                0x0000000008049e63                mutex_unlock
 .text.mutex_unlock_and_sleep
                0x0000000008049ef4       0x7c /home/evanosky/workspace/kubos-core/bin/native/core.a(mutex.o)
                0x0000000008049ef4                mutex_unlock_and_sleep
 .text          0x0000000008049f70        0x0 /home/evanosky/workspace/kubos-core/bin/native/core.a(priority_queue.o)
 .text.priority_queue_remove
                0x0000000008049f70       0x40 /home/evanosky/workspace/kubos-core/bin/native/core.a(priority_queue.o)
                0x0000000008049f70                priority_queue_remove
 .text.priority_queue_remove_head
                0x0000000008049fb0       0x23 /home/evanosky/workspace/kubos-core/bin/native/core.a(priority_queue.o)
                0x0000000008049fb0                priority_queue_remove_head
 .text.priority_queue_add
                0x0000000008049fd3       0x58 /home/evanosky/workspace/kubos-core/bin/native/core.a(priority_queue.o)
                0x0000000008049fd3                priority_queue_add
 .text          0x000000000804a02b        0x0 /home/evanosky/workspace/kubos-core/bin/native/core.a(sched.o)
 .text.sched_run
                0x000000000804a02b       0x8e /home/evanosky/workspace/kubos-core/bin/native/core.a(sched.o)
                0x000000000804a02b                sched_run
 .text.sched_set_status
                0x000000000804a0b9       0xdf /home/evanosky/workspace/kubos-core/bin/native/core.a(sched.o)
                0x000000000804a0b9                sched_set_status
 .text.sched_switch
                0x000000000804a198       0x60 /home/evanosky/workspace/kubos-core/bin/native/core.a(sched.o)
                0x000000000804a198                sched_switch
 .text.sched_task_exit
                0x000000000804a1f8       0x4f /home/evanosky/workspace/kubos-core/bin/native/core.a(sched.o)
                0x000000000804a1f8                sched_task_exit
 .text          0x000000000804a247        0x0 /home/evanosky/workspace/kubos-core/bin/native/core.a(atomic.o)
 .text.atomic_cas
                0x000000000804a247       0x44 /home/evanosky/workspace/kubos-core/bin/native/core.a(atomic.o)
                0x000000000804a247                atomic_cas
 .text          0x000000000804a28b        0x0 /home/evanosky/workspace/kubos-core/bin/native/core.a(bitarithm.o)
 .text.bitarithm_msb
                0x000000000804a28b       0x1c /home/evanosky/workspace/kubos-core/bin/native/core.a(bitarithm.o)
                0x000000000804a28b                bitarithm_msb
 .text.bitarithm_lsb
                0x000000000804a2a7       0x21 /home/evanosky/workspace/kubos-core/bin/native/core.a(bitarithm.o)
                0x000000000804a2a7                bitarithm_lsb
 .text.bitarithm_bits_set
                0x000000000804a2c8       0x27 /home/evanosky/workspace/kubos-core/bin/native/core.a(bitarithm.o)
                0x000000000804a2c8                bitarithm_bits_set
 .text          0x000000000804a2ef        0x0 /home/evanosky/workspace/kubos-core/bin/native/core.a(clist.o)
 .text.clist_add
                0x000000000804a2ef       0x75 /home/evanosky/workspace/kubos-core/bin/native/core.a(clist.o)
                0x000000000804a2ef                clist_add
 .text.clist_remove
                0x000000000804a364       0x49 /home/evanosky/workspace/kubos-core/bin/native/core.a(clist.o)
                0x000000000804a364                clist_remove
 .text          0x000000000804a3ad        0x0 /home/evanosky/workspace/kubos-core/bin/native/cpu.a(irq_cpu.o)
 .text.print_thread_sigmask
                0x000000000804a3ad       0xd5 /home/evanosky/workspace/kubos-core/bin/native/cpu.a(irq_cpu.o)
                0x000000000804a3ad                print_thread_sigmask
 .text.native_print_signals
                0x000000000804a482      0x19d /home/evanosky/workspace/kubos-core/bin/native/cpu.a(irq_cpu.o)
                0x000000000804a482                native_print_signals
 .text.disableIRQ
                0x000000000804a61f       0x61 /home/evanosky/workspace/kubos-core/bin/native/cpu.a(irq_cpu.o)
                0x000000000804a61f                disableIRQ
 .text.enableIRQ
                0x000000000804a680       0x61 /home/evanosky/workspace/kubos-core/bin/native/cpu.a(irq_cpu.o)
                0x000000000804a680                enableIRQ
 .text.restoreIRQ
                0x000000000804a6e1       0x1b /home/evanosky/workspace/kubos-core/bin/native/cpu.a(irq_cpu.o)
                0x000000000804a6e1                restoreIRQ
 .text.inISR    0x000000000804a6fc        0xa /home/evanosky/workspace/kubos-core/bin/native/cpu.a(irq_cpu.o)
                0x000000000804a6fc                inISR
 .text.dINT     0x000000000804a706        0xd /home/evanosky/workspace/kubos-core/bin/native/cpu.a(irq_cpu.o)
                0x000000000804a706                dINT
 .text.eINT     0x000000000804a713        0xd /home/evanosky/workspace/kubos-core/bin/native/cpu.a(irq_cpu.o)
                0x000000000804a713                eINT
 .text._native_popsig
                0x000000000804a720       0x78 /home/evanosky/workspace/kubos-core/bin/native/cpu.a(irq_cpu.o)
                0x000000000804a720                _native_popsig
 .text.native_irq_handler
                0x000000000804a798       0x76 /home/evanosky/workspace/kubos-core/bin/native/cpu.a(irq_cpu.o)
                0x000000000804a798                native_irq_handler
 .text.isr_set_sigmask
                0x000000000804a80e       0x23 /home/evanosky/workspace/kubos-core/bin/native/cpu.a(irq_cpu.o)
                0x000000000804a80e                isr_set_sigmask
 .text.native_isr_entry
                0x000000000804a831      0x130 /home/evanosky/workspace/kubos-core/bin/native/cpu.a(irq_cpu.o)
                0x000000000804a831                native_isr_entry
 .text.set_signal_handler
                0x000000000804a961      0x132 /home/evanosky/workspace/kubos-core/bin/native/cpu.a(irq_cpu.o)
                0x000000000804a961                set_signal_handler
 .text.register_interrupt
                0x000000000804aa93       0x40 /home/evanosky/workspace/kubos-core/bin/native/cpu.a(irq_cpu.o)
                0x000000000804aa93                register_interrupt
 .text.unregister_interrupt
                0x000000000804aad3       0x41 /home/evanosky/workspace/kubos-core/bin/native/cpu.a(irq_cpu.o)
                0x000000000804aad3                unregister_interrupt
 .text.native_shutdown
                0x000000000804ab14       0x14 /home/evanosky/workspace/kubos-core/bin/native/cpu.a(irq_cpu.o)
 .text.native_interrupt_init
                0x000000000804ab28      0x2ee /home/evanosky/workspace/kubos-core/bin/native/cpu.a(irq_cpu.o)
                0x000000000804ab28                native_interrupt_init
 .text          0x000000000804ae16        0x0 /home/evanosky/workspace/kubos-core/bin/native/cpu.a(lpm_cpu.o)
 .text.lpm_init
                0x000000000804ae16       0x10 /home/evanosky/workspace/kubos-core/bin/native/cpu.a(lpm_cpu.o)
                0x000000000804ae16                lpm_init
 .text._native_lpm_sleep
                0x000000000804ae26       0xff /home/evanosky/workspace/kubos-core/bin/native/cpu.a(lpm_cpu.o)
                0x000000000804ae26                _native_lpm_sleep
 .text.lpm_set  0x000000000804af25       0x76 /home/evanosky/workspace/kubos-core/bin/native/cpu.a(lpm_cpu.o)
                0x000000000804af25                lpm_set
 .text.lpm_awake
                0x000000000804af9b       0x10 /home/evanosky/workspace/kubos-core/bin/native/cpu.a(lpm_cpu.o)
                0x000000000804af9b                lpm_awake
 .text.lpm_begin_awake
                0x000000000804afab        0x6 /home/evanosky/workspace/kubos-core/bin/native/cpu.a(lpm_cpu.o)
                0x000000000804afab                lpm_begin_awake
 .text.lpm_end_awake
                0x000000000804afb1       0x10 /home/evanosky/workspace/kubos-core/bin/native/cpu.a(lpm_cpu.o)
                0x000000000804afb1                lpm_end_awake
 .text.lpm_get  0x000000000804afc1        0xa /home/evanosky/workspace/kubos-core/bin/native/cpu.a(lpm_cpu.o)
                0x000000000804afc1                lpm_get
 .text          0x000000000804afcb        0x0 /home/evanosky/workspace/kubos-core/bin/native/cpu.a(native_cpu.o)
 .text.reboot_arch
                0x000000000804afcb       0x63 /home/evanosky/workspace/kubos-core/bin/native/cpu.a(native_cpu.o)
                0x000000000804afcb                reboot_arch
 .text.thread_print_stack
                0x000000000804b02e        0x6 /home/evanosky/workspace/kubos-core/bin/native/cpu.a(native_cpu.o)
                0x000000000804b02e                thread_print_stack
 .text.thread_stack_init
                0x000000000804b034       0xc3 /home/evanosky/workspace/kubos-core/bin/native/cpu.a(native_cpu.o)
                0x000000000804b034                thread_stack_init
 .text.isr_cpu_switch_context_exit
                0x000000000804b0f7       0x74 /home/evanosky/workspace/kubos-core/bin/native/cpu.a(native_cpu.o)
                0x000000000804b0f7                isr_cpu_switch_context_exit
 .text.cpu_switch_context_exit
                0x000000000804b16b       0xae /home/evanosky/workspace/kubos-core/bin/native/cpu.a(native_cpu.o)
                0x000000000804b16b                cpu_switch_context_exit
 .text.isr_thread_yield
                0x000000000804b219       0x4f /home/evanosky/workspace/kubos-core/bin/native/cpu.a(native_cpu.o)
                0x000000000804b219                isr_thread_yield
 .text.thread_yield_higher
                0x000000000804b268       0x9c /home/evanosky/workspace/kubos-core/bin/native/cpu.a(native_cpu.o)
                0x000000000804b268                thread_yield_higher
 .text.native_cpu_init
                0x000000000804b304       0x67 /home/evanosky/workspace/kubos-core/bin/native/cpu.a(native_cpu.o)
                0x000000000804b304                native_cpu_init
 .text          0x000000000804b36b        0x0 /home/evanosky/workspace/kubos-core/bin/native/cpu.a(syscalls.o)
 .text._native_syscall_enter
                0x000000000804b36b       0x12 /home/evanosky/workspace/kubos-core/bin/native/cpu.a(syscalls.o)
                0x000000000804b36b                _native_syscall_enter
 .text._native_syscall_leave
                0x000000000804b37d       0xdf /home/evanosky/workspace/kubos-core/bin/native/cpu.a(syscalls.o)
                0x000000000804b37d                _native_syscall_leave
 .text.malloc   0x000000000804b45c       0x25 /home/evanosky/workspace/kubos-core/bin/native/cpu.a(syscalls.o)
                0x000000000804b45c                malloc
 .text.free     0x000000000804b481       0x1f /home/evanosky/workspace/kubos-core/bin/native/cpu.a(syscalls.o)
                0x000000000804b481                free
 .text.calloc   0x000000000804b4a0       0x79 /home/evanosky/workspace/kubos-core/bin/native/cpu.a(syscalls.o)
                0x000000000804b4a0                calloc
 .text.realloc  0x000000000804b519       0x2c /home/evanosky/workspace/kubos-core/bin/native/cpu.a(syscalls.o)
                0x000000000804b519                realloc
 .text._native_read
                0x000000000804b545       0x33 /home/evanosky/workspace/kubos-core/bin/native/cpu.a(syscalls.o)
                0x000000000804b545                _native_read
 .text._native_write
                0x000000000804b578       0x33 /home/evanosky/workspace/kubos-core/bin/native/cpu.a(syscalls.o)
                0x000000000804b578                _native_write
 .text.putchar  0x000000000804b5ab       0x28 /home/evanosky/workspace/kubos-core/bin/native/cpu.a(syscalls.o)
                0x000000000804b5ab                putchar
 .text.puts     0x000000000804b5d3       0x3c /home/evanosky/workspace/kubos-core/bin/native/cpu.a(syscalls.o)
                0x000000000804b5d3                puts
 .text.make_message
                0x000000000804b60f       0xa5 /home/evanosky/workspace/kubos-core/bin/native/cpu.a(syscalls.o)
                0x000000000804b60f                make_message
 .text.printf   0x000000000804b6b4       0x70 /home/evanosky/workspace/kubos-core/bin/native/cpu.a(syscalls.o)
                0x000000000804b6b4                printf
 .text.vprintf  0x000000000804b724       0x6a /home/evanosky/workspace/kubos-core/bin/native/cpu.a(syscalls.o)
                0x000000000804b724                vprintf
 .text.vwarn    0x000000000804b78e      0x129 /home/evanosky/workspace/kubos-core/bin/native/cpu.a(syscalls.o)
                0x000000000804b78e                vwarn
 .text.vwarnx   0x000000000804b8b7       0xd9 /home/evanosky/workspace/kubos-core/bin/native/cpu.a(syscalls.o)
                0x000000000804b8b7                vwarnx
 .text.verr     0x000000000804b990       0x25 /home/evanosky/workspace/kubos-core/bin/native/cpu.a(syscalls.o)
                0x000000000804b990                verr
 .text.verrx    0x000000000804b9b5       0x25 /home/evanosky/workspace/kubos-core/bin/native/cpu.a(syscalls.o)
                0x000000000804b9b5                verrx
 .text.warn     0x000000000804b9da       0x20 /home/evanosky/workspace/kubos-core/bin/native/cpu.a(syscalls.o)
                0x000000000804b9da                warn
 .text.warnx    0x000000000804b9fa       0x20 /home/evanosky/workspace/kubos-core/bin/native/cpu.a(syscalls.o)
                0x000000000804b9fa                warnx
 .text.err      0x000000000804ba1a       0x25 /home/evanosky/workspace/kubos-core/bin/native/cpu.a(syscalls.o)
                0x000000000804ba1a                err
 .text.errx     0x000000000804ba3f       0x25 /home/evanosky/workspace/kubos-core/bin/native/cpu.a(syscalls.o)
                0x000000000804ba3f                errx
 .text.getpid   0x000000000804ba64       0x19 /home/evanosky/workspace/kubos-core/bin/native/cpu.a(syscalls.o)
                0x000000000804ba64                getpid
 .text._gettimeofday
                0x000000000804ba7d       0x18 /home/evanosky/workspace/kubos-core/bin/native/cpu.a(syscalls.o)
                0x000000000804ba7d                _gettimeofday
 .text._native_init_syscalls
                0x000000000804ba95      0x47b /home/evanosky/workspace/kubos-core/bin/native/cpu.a(syscalls.o)
                0x000000000804ba95                _native_init_syscalls
 .text          0x000000000804bf10       0x2e /home/evanosky/workspace/kubos-core/bin/native/cpu.a(tramp.o)
                0x000000000804bf10                _native_sig_leave_tramp
 .text          0x000000000804bf3e        0x0 /home/evanosky/workspace/kubos-core/bin/native/hwtimer_compat.a(hwtimer_arch.o)
 .text.hwtimer_arch_init
                0x000000000804bf3e       0x2c /home/evanosky/workspace/kubos-core/bin/native/hwtimer_compat.a(hwtimer_arch.o)
                0x000000000804bf3e                hwtimer_arch_init
 .text.hwtimer_arch_enable_interrupt
                0x000000000804bf6a       0x14 /home/evanosky/workspace/kubos-core/bin/native/hwtimer_compat.a(hwtimer_arch.o)
                0x000000000804bf6a                hwtimer_arch_enable_interrupt
 .text.hwtimer_arch_disable_interrupt
                0x000000000804bf7e       0x14 /home/evanosky/workspace/kubos-core/bin/native/hwtimer_compat.a(hwtimer_arch.o)
                0x000000000804bf7e                hwtimer_arch_disable_interrupt
 .text.hwtimer_arch_set
                0x000000000804bf92       0x2a /home/evanosky/workspace/kubos-core/bin/native/hwtimer_compat.a(hwtimer_arch.o)
                0x000000000804bf92                hwtimer_arch_set
 .text.hwtimer_arch_set_absolute
                0x000000000804bfbc       0x2a /home/evanosky/workspace/kubos-core/bin/native/hwtimer_compat.a(hwtimer_arch.o)
                0x000000000804bfbc                hwtimer_arch_set_absolute
 .text.hwtimer_arch_unset
                0x000000000804bfe6       0x23 /home/evanosky/workspace/kubos-core/bin/native/hwtimer_compat.a(hwtimer_arch.o)
                0x000000000804bfe6                hwtimer_arch_unset
 .text.hwtimer_arch_now
                0x000000000804c009       0x14 /home/evanosky/workspace/kubos-core/bin/native/hwtimer_compat.a(hwtimer_arch.o)
                0x000000000804c009                hwtimer_arch_now
 .text.irq_handler
                0x000000000804c01d       0x18 /home/evanosky/workspace/kubos-core/bin/native/hwtimer_compat.a(hwtimer_arch.o)
                0x000000000804c01d                irq_handler
 .text          0x000000000804c035        0x0 /home/evanosky/workspace/kubos-core/bin/native/periph.a(timer.o)
 .text.ts2ticks
                0x000000000804c035       0x2f /home/evanosky/workspace/kubos-core/bin/native/periph.a(timer.o)
 .text.native_isr_timer
                0x000000000804c064       0x16 /home/evanosky/workspace/kubos-core/bin/native/periph.a(timer.o)
                0x000000000804c064                native_isr_timer
 .text.timer_init
                0x000000000804c07a       0x53 /home/evanosky/workspace/kubos-core/bin/native/periph.a(timer.o)
                0x000000000804c07a                timer_init
 .text.do_timer_set
                0x000000000804c0cd       0xaf /home/evanosky/workspace/kubos-core/bin/native/periph.a(timer.o)
 .text.timer_set
                0x000000000804c17c       0x25 /home/evanosky/workspace/kubos-core/bin/native/periph.a(timer.o)
                0x000000000804c17c                timer_set
 .text.timer_set_absolute
                0x000000000804c1a1       0x6e /home/evanosky/workspace/kubos-core/bin/native/periph.a(timer.o)
                0x000000000804c1a1                timer_set_absolute
 .text.timer_clear
                0x000000000804c20f       0x19 /home/evanosky/workspace/kubos-core/bin/native/periph.a(timer.o)
                0x000000000804c20f                timer_clear
 .text.timer_irq_enable
                0x000000000804c228       0x1d /home/evanosky/workspace/kubos-core/bin/native/periph.a(timer.o)
                0x000000000804c228                timer_irq_enable
 .text.timer_irq_disable
                0x000000000804c245       0x15 /home/evanosky/workspace/kubos-core/bin/native/periph.a(timer.o)
                0x000000000804c245                timer_irq_disable
 .text.timer_start
                0x000000000804c25a        0x5 /home/evanosky/workspace/kubos-core/bin/native/periph.a(timer.o)
                0x000000000804c25a                timer_start
 .text.timer_stop
                0x000000000804c25f        0x5 /home/evanosky/workspace/kubos-core/bin/native/periph.a(timer.o)
                0x000000000804c25f                timer_stop
 .text.timer_reset
                0x000000000804c264       0x1e /home/evanosky/workspace/kubos-core/bin/native/periph.a(timer.o)
                0x000000000804c264                timer_reset
 .text.timer_read
                0x000000000804c282       0x60 /home/evanosky/workspace/kubos-core/bin/native/periph.a(timer.o)
                0x000000000804c282                timer_read
 .text          0x000000000804c2e2        0x0 /home/evanosky/workspace/kubos-core/bin/native/vtimer.a(vtimer.o)
 .text.timer_get_node
                0x000000000804c2e2       0x15 /home/evanosky/workspace/kubos-core/bin/native/vtimer.a(vtimer.o)
 .text.node_get_timer
                0x000000000804c2f7       0x1f /home/evanosky/workspace/kubos-core/bin/native/vtimer.a(vtimer.o)
 .text.set_longterm
                0x000000000804c316       0x4f /home/evanosky/workspace/kubos-core/bin/native/vtimer.a(vtimer.o)
 .text.update_shortterm
                0x000000000804c365       0xc6 /home/evanosky/workspace/kubos-core/bin/native/vtimer.a(vtimer.o)
 .text.vtimer_callback_tick
                0x000000000804c42b       0x81 /home/evanosky/workspace/kubos-core/bin/native/vtimer.a(vtimer.o)
 .text.vtimer_callback_msg
                0x000000000804c4ac       0x33 /home/evanosky/workspace/kubos-core/bin/native/vtimer.a(vtimer.o)
 .text.vtimer_callback_wakeup
                0x000000000804c4df       0x18 /home/evanosky/workspace/kubos-core/bin/native/vtimer.a(vtimer.o)
 .text.vtimer_callback_unlock
                0x000000000804c4f7       0x1c /home/evanosky/workspace/kubos-core/bin/native/vtimer.a(vtimer.o)
 .text.set_shortterm
                0x000000000804c513       0x4f /home/evanosky/workspace/kubos-core/bin/native/vtimer.a(vtimer.o)
 .text.vtimer_callback
                0x000000000804c562       0x56 /home/evanosky/workspace/kubos-core/bin/native/vtimer.a(vtimer.o)
 .text.normalize_to_tick
                0x000000000804c5b8       0x83 /home/evanosky/workspace/kubos-core/bin/native/vtimer.a(vtimer.o)
                0x000000000804c5b8                normalize_to_tick
 .text.vtimer_set
                0x000000000804c63b       0xe1 /home/evanosky/workspace/kubos-core/bin/native/vtimer.a(vtimer.o)
 .text.vtimer_now
                0x000000000804c71c       0x4f /home/evanosky/workspace/kubos-core/bin/native/vtimer.a(vtimer.o)
                0x000000000804c71c                vtimer_now
 .text.vtimer_gettimeofday
                0x000000000804c76b       0x28 /home/evanosky/workspace/kubos-core/bin/native/vtimer.a(vtimer.o)
                0x000000000804c76b                vtimer_gettimeofday
 .text.vtimer_get_localtime
                0x000000000804c793       0xb5 /home/evanosky/workspace/kubos-core/bin/native/vtimer.a(vtimer.o)
                0x000000000804c793                vtimer_get_localtime
 .text.vtimer_init
                0x000000000804c848       0x5e /home/evanosky/workspace/kubos-core/bin/native/vtimer.a(vtimer.o)
                0x000000000804c848                vtimer_init
 .text.vtimer_set_wakeup
                0x000000000804c8a6       0x48 /home/evanosky/workspace/kubos-core/bin/native/vtimer.a(vtimer.o)
                0x000000000804c8a6                vtimer_set_wakeup
 .text.vtimer_usleep
                0x000000000804c8ee       0x37 /home/evanosky/workspace/kubos-core/bin/native/vtimer.a(vtimer.o)
                0x000000000804c8ee                vtimer_usleep
 .text.vtimer_sleep
                0x000000000804c925       0x7e /home/evanosky/workspace/kubos-core/bin/native/vtimer.a(vtimer.o)
                0x000000000804c925                vtimer_sleep
 .text.vtimer_remove
                0x000000000804c9a3       0x56 /home/evanosky/workspace/kubos-core/bin/native/vtimer.a(vtimer.o)
                0x000000000804c9a3                vtimer_remove
 .text.vtimer_set_msg
                0x000000000804c9f9       0x59 /home/evanosky/workspace/kubos-core/bin/native/vtimer.a(vtimer.o)
                0x000000000804c9f9                vtimer_set_msg
 .text.vtimer_msg_receive_timeout
                0x000000000804ca52       0x84 /home/evanosky/workspace/kubos-core/bin/native/vtimer.a(vtimer.o)
                0x000000000804ca52                vtimer_msg_receive_timeout
 .text          0x000000000804cad6        0x0 /home/evanosky/workspace/kubos-core/bin/native/native_base.a(native-uart0.o)
 .text.uart0_puts
                0x000000000804cad6       0x98 /home/evanosky/workspace/kubos-core/bin/native/native_base.a(native-uart0.o)
                0x000000000804cad6                uart0_puts
 .text.get_in_addr
                0x000000000804cb6e       0x1f /home/evanosky/workspace/kubos-core/bin/native/native_base.a(native-uart0.o)
                0x000000000804cb6e                get_in_addr
 .text.init_tcp_socket
                0x000000000804cb8d      0x1e6 /home/evanosky/workspace/kubos-core/bin/native/native_base.a(native-uart0.o)
                0x000000000804cb8d                init_tcp_socket
 .text.init_unix_socket
                0x000000000804cd73      0x14d /home/evanosky/workspace/kubos-core/bin/native/native_base.a(native-uart0.o)
                0x000000000804cd73                init_unix_socket
 .text.handle_uart_in
                0x000000000804cec0      0x140 /home/evanosky/workspace/kubos-core/bin/native/native_base.a(native-uart0.o)
                0x000000000804cec0                handle_uart_in
 .text.handle_uart_sock
                0x000000000804d000      0x229 /home/evanosky/workspace/kubos-core/bin/native/native_base.a(native-uart0.o)
                0x000000000804d000                handle_uart_sock
 .text._native_handle_uart0_input
                0x000000000804d229       0x63 /home/evanosky/workspace/kubos-core/bin/native/native_base.a(native-uart0.o)
                0x000000000804d229                _native_handle_uart0_input
 .text._native_set_uart_fds
                0x000000000804d28c       0x76 /home/evanosky/workspace/kubos-core/bin/native/native_base.a(native-uart0.o)
                0x000000000804d28c                _native_set_uart_fds
 .text._native_init_uart0
                0x000000000804d302      0x183 /home/evanosky/workspace/kubos-core/bin/native/native_base.a(native-uart0.o)
                0x000000000804d302                _native_init_uart0
 .text          0x000000000804d485        0x0 /home/evanosky/workspace/kubos-core/bin/native/native_base.a(board_init.o)
 .text.board_init
                0x000000000804d485       0x1e /home/evanosky/workspace/kubos-core/bin/native/native_base.a(board_init.o)
                0x000000000804d485                board_init
 .text          0x000000000804d4a3        0x0 /home/evanosky/workspace/kubos-core/bin/native/native_base.a(native-led.o)
 .text._native_LED_GREEN_OFF
                0x000000000804d4a3       0x14 /home/evanosky/workspace/kubos-core/bin/native/native_base.a(native-led.o)
                0x000000000804d4a3                _native_LED_GREEN_OFF
 .text._native_LED_GREEN_ON
                0x000000000804d4b7       0x14 /home/evanosky/workspace/kubos-core/bin/native/native_base.a(native-led.o)
                0x000000000804d4b7                _native_LED_GREEN_ON
 .text._native_LED_GREEN_TOGGLE
                0x000000000804d4cb       0x14 /home/evanosky/workspace/kubos-core/bin/native/native_base.a(native-led.o)
                0x000000000804d4cb                _native_LED_GREEN_TOGGLE
 .text._native_LED_RED_OFF
                0x000000000804d4df       0x14 /home/evanosky/workspace/kubos-core/bin/native/native_base.a(native-led.o)
                0x000000000804d4df                _native_LED_RED_OFF
 .text._native_LED_RED_ON
                0x000000000804d4f3       0x14 /home/evanosky/workspace/kubos-core/bin/native/native_base.a(native-led.o)
                0x000000000804d4f3                _native_LED_RED_ON
 .text._native_LED_RED_TOGGLE
                0x000000000804d507       0x14 /home/evanosky/workspace/kubos-core/bin/native/native_base.a(native-led.o)
                0x000000000804d507                _native_LED_RED_TOGGLE
 .text          0x000000000804d51b        0x0 /home/evanosky/workspace/kubos-core/bin/native/kubos-core.a(main.o)
 .text.hello_world
                0x000000000804d51b       0x19 /home/evanosky/workspace/kubos-core/bin/native/kubos-core.a(main.o)
                0x000000000804d51b                hello_world
 .text.main     0x000000000804d534       0x71 /home/evanosky/workspace/kubos-core/bin/native/kubos-core.a(main.o)
                0x000000000804d534                main
 .text          0x000000000804d5a5        0x0 /home/evanosky/workspace/kubos-core/bin/native/auto_init.a(auto_init.o)
 .text.auto_init
                0x000000000804d5a5       0x12 /home/evanosky/workspace/kubos-core/bin/native/auto_init.a(auto_init.o)
                0x000000000804d5a5                auto_init
 .text          0x000000000804d5b7        0x0 /home/evanosky/workspace/kubos-core/bin/native/core.a(msg.o)
 .text.cib_init
                0x000000000804d5b7       0x33 /home/evanosky/workspace/kubos-core/bin/native/core.a(msg.o)
 .text.cib_avail
                0x000000000804d5ea       0x14 /home/evanosky/workspace/kubos-core/bin/native/core.a(msg.o)
 .text.cib_get  0x000000000804d5fe       0x38 /home/evanosky/workspace/kubos-core/bin/native/core.a(msg.o)
 .text.cib_put  0x000000000804d636       0x41 /home/evanosky/workspace/kubos-core/bin/native/core.a(msg.o)
 .text.queue_msg
                0x000000000804d677       0x4c /home/evanosky/workspace/kubos-core/bin/native/core.a(msg.o)
 .text.msg_send
                0x000000000804d6c3       0x6b /home/evanosky/workspace/kubos-core/bin/native/core.a(msg.o)
                0x000000000804d6c3                msg_send
 .text.msg_try_send
                0x000000000804d72e       0x6b /home/evanosky/workspace/kubos-core/bin/native/core.a(msg.o)
                0x000000000804d72e                msg_try_send
 .text._msg_send
                0x000000000804d799      0x17f /home/evanosky/workspace/kubos-core/bin/native/core.a(msg.o)
 .text.msg_send_to_self
                0x000000000804d918       0x42 /home/evanosky/workspace/kubos-core/bin/native/core.a(msg.o)
                0x000000000804d918                msg_send_to_self
 .text.msg_send_int
                0x000000000804d95a       0x8e /home/evanosky/workspace/kubos-core/bin/native/core.a(msg.o)
                0x000000000804d95a                msg_send_int
 .text.msg_send_receive
                0x000000000804d9e8       0x67 /home/evanosky/workspace/kubos-core/bin/native/core.a(msg.o)
                0x000000000804d9e8                msg_send_receive
 .text.msg_reply
                0x000000000804da4f       0xa0 /home/evanosky/workspace/kubos-core/bin/native/core.a(msg.o)
                0x000000000804da4f                msg_reply
 .text.msg_reply_int
                0x000000000804daef       0x68 /home/evanosky/workspace/kubos-core/bin/native/core.a(msg.o)
                0x000000000804daef                msg_reply_int
 .text.msg_try_receive
                0x000000000804db57       0x1b /home/evanosky/workspace/kubos-core/bin/native/core.a(msg.o)
                0x000000000804db57                msg_try_receive
 .text.msg_receive
                0x000000000804db72       0x1b /home/evanosky/workspace/kubos-core/bin/native/core.a(msg.o)
                0x000000000804db72                msg_receive
 .text._msg_receive
                0x000000000804db8d      0x18f /home/evanosky/workspace/kubos-core/bin/native/core.a(msg.o)
 .text.msg_init_queue
                0x000000000804dd1c       0x4d /home/evanosky/workspace/kubos-core/bin/native/core.a(msg.o)
                0x000000000804dd1c                msg_init_queue
 .text          0x000000000804dd69        0x0 /home/evanosky/workspace/kubos-core/bin/native/posix.a(posix_io.o)
 .text._posix_fileop
                0x000000000804dd69       0x39 /home/evanosky/workspace/kubos-core/bin/native/posix.a(posix_io.o)
 .text._posix_fileop_data
                0x000000000804dda2       0x45 /home/evanosky/workspace/kubos-core/bin/native/posix.a(posix_io.o)
 .text.posix_open
                0x000000000804dde7       0x30 /home/evanosky/workspace/kubos-core/bin/native/posix.a(posix_io.o)
                0x000000000804dde7                posix_open
 .text.posix_close
                0x000000000804de17       0x24 /home/evanosky/workspace/kubos-core/bin/native/posix.a(posix_io.o)
                0x000000000804de17                posix_close
 .text.posix_read
                0x000000000804de3b       0x2a /home/evanosky/workspace/kubos-core/bin/native/posix.a(posix_io.o)
                0x000000000804de3b                posix_read
 .text.posix_write
                0x000000000804de65       0x2a /home/evanosky/workspace/kubos-core/bin/native/posix.a(posix_io.o)
                0x000000000804de65                posix_write
 .text          0x000000000804de8f        0x0 /home/evanosky/workspace/kubos-core/bin/native/shell.a(shell.o)
 .text.find_handler
                0x000000000804de8f       0x65 /home/evanosky/workspace/kubos-core/bin/native/shell.a(shell.o)
 .text.print_help
                0x000000000804def4       0x87 /home/evanosky/workspace/kubos-core/bin/native/shell.a(shell.o)
 .text.handle_input_line
                0x000000000804df7b      0x2dc /home/evanosky/workspace/kubos-core/bin/native/shell.a(shell.o)
 .text.readline
                0x000000000804e257       0xf8 /home/evanosky/workspace/kubos-core/bin/native/shell.a(shell.o)
 .text.print_prompt
                0x000000000804e34f       0x27 /home/evanosky/workspace/kubos-core/bin/native/shell.a(shell.o)
 .text.shell_run
                0x000000000804e376       0x8b /home/evanosky/workspace/kubos-core/bin/native/shell.a(shell.o)
                0x000000000804e376                shell_run
 .text.shell_init
                0x000000000804e401       0x34 /home/evanosky/workspace/kubos-core/bin/native/shell.a(shell.o)
                0x000000000804e401                shell_init
 .text          0x000000000804e435        0x0 /home/evanosky/workspace/kubos-core/bin/native/timex.a(timex.o)
 .text.timex_add
                0x000000000804e435       0x4f /home/evanosky/workspace/kubos-core/bin/native/timex.a(timex.o)
                0x000000000804e435                timex_add
 .text.timex_set
                0x000000000804e484       0x27 /home/evanosky/workspace/kubos-core/bin/native/timex.a(timex.o)
                0x000000000804e484                timex_set
 .text.timex_sub
                0x000000000804e4ab       0x63 /home/evanosky/workspace/kubos-core/bin/native/timex.a(timex.o)
                0x000000000804e4ab                timex_sub
 .text.timex_cmp
                0x000000000804e50e       0x47 /home/evanosky/workspace/kubos-core/bin/native/timex.a(timex.o)
                0x000000000804e50e                timex_cmp
 .text          0x000000000804e555        0x0 /home/evanosky/workspace/kubos-core/bin/native/uart0.a(uart0.o)
 .text.ringbuffer_init
                0x000000000804e555       0x2a /home/evanosky/workspace/kubos-core/bin/native/uart0.a(uart0.o)
 .text.board_uart0_init
                0x000000000804e57f       0x86 /home/evanosky/workspace/kubos-core/bin/native/uart0.a(uart0.o)
                0x000000000804e57f                board_uart0_init
 .text.uart0_handle_incoming
                0x000000000804e605       0x1e /home/evanosky/workspace/kubos-core/bin/native/uart0.a(uart0.o)
                0x000000000804e605                uart0_handle_incoming
 .text.uart0_notify_thread
                0x000000000804e623       0x25 /home/evanosky/workspace/kubos-core/bin/native/uart0.a(uart0.o)
                0x000000000804e623                uart0_notify_thread
 .text.uart0_readc
                0x000000000804e648       0x32 /home/evanosky/workspace/kubos-core/bin/native/uart0.a(uart0.o)
                0x000000000804e648                uart0_readc
 .text.uart0_putc
                0x000000000804e67a       0x13 /home/evanosky/workspace/kubos-core/bin/native/uart0.a(uart0.o)
                0x000000000804e67a                uart0_putc
 .text          0x000000000804e68d        0x0 /home/evanosky/workspace/kubos-core/bin/native/core.a(ringbuffer.o)
 .text.ringbuffer_empty
                0x000000000804e68d       0x13 /home/evanosky/workspace/kubos-core/bin/native/core.a(ringbuffer.o)
 .text.ringbuffer_full
                0x000000000804e6a0       0x19 /home/evanosky/workspace/kubos-core/bin/native/core.a(ringbuffer.o)
 .text.add_tail
                0x000000000804e6b9       0x51 /home/evanosky/workspace/kubos-core/bin/native/core.a(ringbuffer.o)
 .text.get_head
                0x000000000804e70a       0x61 /home/evanosky/workspace/kubos-core/bin/native/core.a(ringbuffer.o)
 .text.ringbuffer_add
                0x000000000804e76b       0x4e /home/evanosky/workspace/kubos-core/bin/native/core.a(ringbuffer.o)
                0x000000000804e76b                ringbuffer_add
 .text.ringbuffer_add_one
                0x000000000804e7b9       0x4b /home/evanosky/workspace/kubos-core/bin/native/core.a(ringbuffer.o)
                0x000000000804e7b9                ringbuffer_add_one
 .text.ringbuffer_get_one
                0x000000000804e804       0x2c /home/evanosky/workspace/kubos-core/bin/native/core.a(ringbuffer.o)
                0x000000000804e804                ringbuffer_get_one
 .text.ringbuffer_get
                0x000000000804e830       0xf8 /home/evanosky/workspace/kubos-core/bin/native/core.a(ringbuffer.o)
                0x000000000804e830                ringbuffer_get
 .text.ringbuffer_remove
                0x000000000804e928       0x7a /home/evanosky/workspace/kubos-core/bin/native/core.a(ringbuffer.o)
                0x000000000804e928                ringbuffer_remove
 .text.ringbuffer_peek_one
                0x000000000804e9a2       0x2d /home/evanosky/workspace/kubos-core/bin/native/core.a(ringbuffer.o)
                0x000000000804e9a2                ringbuffer_peek_one
 .text.ringbuffer_peek
                0x000000000804e9cf       0x3b /home/evanosky/workspace/kubos-core/bin/native/core.a(ringbuffer.o)
                0x000000000804e9cf                ringbuffer_peek
 .text          0x000000000804ea0a        0x0 /home/evanosky/workspace/kubos-core/bin/native/sys.a(chardev_thread.o)
 .text.msg_sent_by_int
                0x000000000804ea0a       0x15 /home/evanosky/workspace/kubos-core/bin/native/sys.a(chardev_thread.o)
 .text.min      0x000000000804ea1f       0x15 /home/evanosky/workspace/kubos-core/bin/native/sys.a(chardev_thread.o)
 .text.chardev_loop
                0x000000000804ea34      0x1b6 /home/evanosky/workspace/kubos-core/bin/native/sys.a(chardev_thread.o)
                0x000000000804ea34                chardev_loop
 .text.chardev_thread_entry
                0x000000000804ebea       0x1e /home/evanosky/workspace/kubos-core/bin/native/sys.a(chardev_thread.o)
                0x000000000804ebea                chardev_thread_entry
 *fill*         0x000000000804ec08        0x8 
 .text          0x000000000804ec10       0x72 /usr/lib32/libc_nonshared.a(elf-init.oS)
                0x000000000804ec10                __libc_csu_init
                0x000000000804ec80                __libc_csu_fini
 .text          0x000000000804ec82        0x0 /usr/lib/gcc/x86_64-linux-gnu/4.8/32/crtend.o
 .text          0x000000000804ec82        0x0 /usr/lib/gcc/x86_64-linux-gnu/4.8/../../../../lib32/crtn.o
 *(.gnu.warning)

.fini           0x000000000804ec84       0x14
 *(SORT(.fini))
 .fini          0x000000000804ec84        0xf /usr/lib/gcc/x86_64-linux-gnu/4.8/../../../../lib32/crti.o
                0x000000000804ec84                _fini
 .fini          0x000000000804ec93        0x5 /usr/lib/gcc/x86_64-linux-gnu/4.8/../../../../lib32/crtn.o
                0x000000000804ec98                PROVIDE (__etext, .)
                0x000000000804ec98                PROVIDE (_etext, .)
                0x000000000804ec98                PROVIDE (etext, .)

.rodata         0x000000000804ec98     0x129a
 *(.rodata .rodata.* .gnu.linkonce.r.*)
 .rodata        0x000000000804ec98        0x4 /usr/lib/gcc/x86_64-linux-gnu/4.8/../../../../lib32/crt1.o
                0x000000000804ec98                _fp_hw
 .rodata.cst4   0x000000000804ec9c        0x4 /usr/lib/gcc/x86_64-linux-gnu/4.8/../../../../lib32/crt1.o
                0x000000000804ec9c                _IO_stdin_used
 .rodata        0x000000000804eca0      0x543 /home/evanosky/workspace/kubos-core/bin/native/cpu/startup.o
 *fill*         0x000000000804f1e3        0x1 
 .rodata        0x000000000804f1e4       0x8a /home/evanosky/workspace/kubos-core/bin/native/core.a(kernel_init.o)
 .rodata        0x000000000804f26e       0x11 /home/evanosky/workspace/kubos-core/bin/native/core.a(hwtimer.o)
 *fill*         0x000000000804f27f        0x1 
 .rodata        0x000000000804f280      0x39c /home/evanosky/workspace/kubos-core/bin/native/cpu.a(irq_cpu.o)
 .rodata        0x000000000804f61c       0x9c /home/evanosky/workspace/kubos-core/bin/native/cpu.a(lpm_cpu.o)
 .rodata.lpm_set
                0x000000000804f6b8       0x14 /home/evanosky/workspace/kubos-core/bin/native/cpu.a(lpm_cpu.o)
 .rodata        0x000000000804f6cc      0x1b1 /home/evanosky/workspace/kubos-core/bin/native/cpu.a(native_cpu.o)
 *fill*         0x000000000804f87d        0x3 
 .rodata        0x000000000804f880      0x177 /home/evanosky/workspace/kubos-core/bin/native/cpu.a(syscalls.o)
 .rodata        0x000000000804f9f7       0x2f /home/evanosky/workspace/kubos-core/bin/native/periph.a(timer.o)
 *fill*         0x000000000804fa26        0x2 
 .rodata.us_per_s.3155
                0x000000000804fa28        0x4 /home/evanosky/workspace/kubos-core/bin/native/vtimer.a(vtimer.o)
 .rodata        0x000000000804fa2c      0x35f /home/evanosky/workspace/kubos-core/bin/native/native_base.a(native-uart0.o)
 *fill*         0x000000000804fd8b        0x1 
 .rodata        0x000000000804fd8c       0x1f /home/evanosky/workspace/kubos-core/bin/native/native_base.a(board_init.o)
 .rodata        0x000000000804fdab       0x52 /home/evanosky/workspace/kubos-core/bin/native/native_base.a(native-led.o)
 *fill*         0x000000000804fdfd        0x3 
 .rodata        0x000000000804fe00       0x68 /home/evanosky/workspace/kubos-core/bin/native/kubos-core.a(main.o)
 .rodata.shell_commands
                0x000000000804fe68       0x18 /home/evanosky/workspace/kubos-core/bin/native/kubos-core.a(main.o)
                0x000000000804fe68                shell_commands
 .rodata        0x000000000804fe80       0x84 /home/evanosky/workspace/kubos-core/bin/native/shell.a(shell.o)
 .rodata        0x000000000804ff04       0x18 /home/evanosky/workspace/kubos-core/bin/native/uart0.a(uart0.o)
 .rodata        0x000000000804ff1c       0x16 /home/evanosky/workspace/kubos-core/bin/native/sys.a(chardev_thread.o)

.rodata1
 *(.rodata1)

.eh_frame_hdr   0x000000000804ff34      0x73c
 *(.eh_frame_hdr)
 .eh_frame_hdr  0x000000000804ff34      0x73c /home/evanosky/workspace/kubos-core/bin/native/cpu/startup.o

.eh_frame       0x0000000008050670     0x1d3c
 *(.eh_frame)
 .eh_frame      0x0000000008050670       0x3c /usr/lib/gcc/x86_64-linux-gnu/4.8/../../../../lib32/crt1.o
                                         0x40 (size before relaxing)
 .eh_frame      0x00000000080506ac       0xdc /home/evanosky/workspace/kubos-core/bin/native/cpu/startup.o
                                         0xf4 (size before relaxing)
 .eh_frame      0x0000000008050788       0x58 /home/evanosky/workspace/kubos-core/bin/native/core.a(kernel_init.o)
                                         0x70 (size before relaxing)
 .eh_frame      0x00000000080507e0      0x120 /home/evanosky/workspace/kubos-core/bin/native/core.a(thread.o)
                                        0x138 (size before relaxing)
 .eh_frame      0x0000000008050900      0x180 /home/evanosky/workspace/kubos-core/bin/native/core.a(hwtimer.o)
                                        0x198 (size before relaxing)
 .eh_frame      0x0000000008050a80       0x80 /home/evanosky/workspace/kubos-core/bin/native/core.a(lifo.o)
                                         0x98 (size before relaxing)
 .eh_frame      0x0000000008050b00       0xc0 /home/evanosky/workspace/kubos-core/bin/native/core.a(mutex.o)
                                         0xd8 (size before relaxing)
 .eh_frame      0x0000000008050bc0       0x60 /home/evanosky/workspace/kubos-core/bin/native/core.a(priority_queue.o)
                                         0x78 (size before relaxing)
 .eh_frame      0x0000000008050c20       0x7c /home/evanosky/workspace/kubos-core/bin/native/core.a(sched.o)
                                         0x94 (size before relaxing)
 .eh_frame      0x0000000008050c9c       0x20 /home/evanosky/workspace/kubos-core/bin/native/core.a(atomic.o)
                                         0x38 (size before relaxing)
 .eh_frame      0x0000000008050cbc       0x68 /home/evanosky/workspace/kubos-core/bin/native/core.a(bitarithm.o)
                                         0x80 (size before relaxing)
 .eh_frame      0x0000000008050d24       0x40 /home/evanosky/workspace/kubos-core/bin/native/core.a(clist.o)
                                         0x58 (size before relaxing)
 .eh_frame      0x0000000008050d64      0x248 /home/evanosky/workspace/kubos-core/bin/native/cpu.a(irq_cpu.o)
                                        0x260 (size before relaxing)
 .eh_frame      0x0000000008050fac       0xe4 /home/evanosky/workspace/kubos-core/bin/native/cpu.a(lpm_cpu.o)
                                         0xfc (size before relaxing)
 .eh_frame      0x0000000008051090       0xf4 /home/evanosky/workspace/kubos-core/bin/native/cpu.a(native_cpu.o)
                                        0x10c (size before relaxing)
 .eh_frame      0x0000000008051184      0x2fc /home/evanosky/workspace/kubos-core/bin/native/cpu.a(syscalls.o)
                                        0x314 (size before relaxing)
 .eh_frame      0x0000000008051480      0x100 /home/evanosky/workspace/kubos-core/bin/native/hwtimer_compat.a(hwtimer_arch.o)
                                        0x118 (size before relaxing)
 .eh_frame      0x0000000008051580      0x1a4 /home/evanosky/workspace/kubos-core/bin/native/periph.a(timer.o)
                                        0x1bc (size before relaxing)
 .eh_frame      0x0000000008051724      0x2c8 /home/evanosky/workspace/kubos-core/bin/native/vtimer.a(vtimer.o)
                                        0x2e0 (size before relaxing)
 .eh_frame      0x00000000080519ec      0x13c /home/evanosky/workspace/kubos-core/bin/native/native_base.a(native-uart0.o)
                                        0x154 (size before relaxing)
 .eh_frame      0x0000000008051b28       0x20 /home/evanosky/workspace/kubos-core/bin/native/native_base.a(board_init.o)
                                         0x38 (size before relaxing)
 .eh_frame      0x0000000008051b48       0xc0 /home/evanosky/workspace/kubos-core/bin/native/native_base.a(native-led.o)
                                         0xd8 (size before relaxing)
 .eh_frame      0x0000000008051c08       0x3c /home/evanosky/workspace/kubos-core/bin/native/kubos-core.a(main.o)
                                         0x54 (size before relaxing)
 .eh_frame      0x0000000008051c44       0x20 /home/evanosky/workspace/kubos-core/bin/native/auto_init.a(auto_init.o)
                                         0x38 (size before relaxing)
 .eh_frame      0x0000000008051c64      0x228 /home/evanosky/workspace/kubos-core/bin/native/core.a(msg.o)
                                        0x240 (size before relaxing)
 .eh_frame      0x0000000008051e8c       0xc0 /home/evanosky/workspace/kubos-core/bin/native/posix.a(posix_io.o)
                                         0xd8 (size before relaxing)
 .eh_frame      0x0000000008051f4c       0xe8 /home/evanosky/workspace/kubos-core/bin/native/shell.a(shell.o)
                                        0x100 (size before relaxing)
 .eh_frame      0x0000000008052034       0x80 /home/evanosky/workspace/kubos-core/bin/native/timex.a(timex.o)
                                         0x98 (size before relaxing)
 .eh_frame      0x00000000080520b4       0xc0 /home/evanosky/workspace/kubos-core/bin/native/uart0.a(uart0.o)
                                         0xd8 (size before relaxing)
 .eh_frame      0x0000000008052174      0x168 /home/evanosky/workspace/kubos-core/bin/native/core.a(ringbuffer.o)
                                        0x180 (size before relaxing)
 .eh_frame      0x00000000080522dc       0x7c /home/evanosky/workspace/kubos-core/bin/native/sys.a(chardev_thread.o)
                                         0x94 (size before relaxing)
 .eh_frame      0x0000000008052358       0x50 /usr/lib32/libc_nonshared.a(elf-init.oS)
                                         0x7c (size before relaxing)
 .eh_frame      0x00000000080523a8        0x4 /usr/lib/gcc/x86_64-linux-gnu/4.8/32/crtend.o

.gcc_except_table
 *(.gcc_except_table .gcc_except_table.*)

.exception_ranges
 *(.exception_ranges .exception_ranges*)
                0x00000000080523ac                . = (ALIGN (0x1000) - ((0x1000 - .) & 0xfff))
                0x0000000008053efc                . = DATA_SEGMENT_ALIGN (0x1000, 0x1000)

.eh_frame
 *(.eh_frame)

.gcc_except_table
 *(.gcc_except_table .gcc_except_table.*)

.exception_ranges
 *(.exception_ranges .exception_ranges*)

.tdata
 *(.tdata .tdata.* .gnu.linkonce.td.*)

.tbss
 *(.tbss .tbss.* .gnu.linkonce.tb.*)
 *(.tcommon)

.preinit_array  0x0000000008053efc        0x0
                0x0000000008053efc                PROVIDE (__preinit_array_start, .)
 *(.preinit_array)
                0x0000000008053efc                PROVIDE (__preinit_array_end, .)

.init_array     0x0000000008053efc        0x8
                0x0000000008053efc                PROVIDE (__init_array_start, .)
 *(SORT(.init_array.*) SORT(.ctors.*))
 *(.init_array EXCLUDE_FILE(*crtend?.o *crtend.o *crtbegin?.o *crtbegin.o) .ctors)
 .init_array    0x0000000008053efc        0x4 /usr/lib/gcc/x86_64-linux-gnu/4.8/32/crtbegin.o
 .init_array    0x0000000008053f00        0x4 /home/evanosky/workspace/kubos-core/bin/native/cpu/startup.o
                0x0000000008053f04                PROVIDE (__init_array_end, .)

.fini_array     0x0000000008053f04        0x4
                0x0000000008053f04                PROVIDE (__fini_array_start, .)
 *(SORT(.fini_array.*) SORT(.dtors.*))
 *(.fini_array EXCLUDE_FILE(*crtend?.o *crtend.o *crtbegin?.o *crtbegin.o) .dtors)
 .fini_array    0x0000000008053f04        0x4 /usr/lib/gcc/x86_64-linux-gnu/4.8/32/crtbegin.o
                0x0000000008053f08                PROVIDE (__fini_array_end, .)

.ctors
 *crtbegin.o(.ctors)
 *crtbegin?.o(.ctors)
 *(EXCLUDE_FILE(*crtend?.o *crtend.o) .ctors)
 *(SORT(.ctors.*))
 *(.ctors)

.dtors
 *crtbegin.o(.dtors)
 *crtbegin?.o(.dtors)
 *(EXCLUDE_FILE(*crtend?.o *crtend.o) .dtors)
 *(SORT(.dtors.*))
 *(.dtors)

.jcr            0x0000000008053f08        0x4
 *(.jcr)
 .jcr           0x0000000008053f08        0x0 /usr/lib/gcc/x86_64-linux-gnu/4.8/32/crtbegin.o
 .jcr           0x0000000008053f08        0x4 /usr/lib/gcc/x86_64-linux-gnu/4.8/32/crtend.o

.data.rel.ro
 *(.data.rel.ro.local* .gnu.linkonce.d.rel.ro.local.*)
 *(.data.rel.ro .data.rel.ro.* .gnu.linkonce.d.rel.ro.*)

.dynamic        0x0000000008053f0c       0xf0
 *(.dynamic)
 .dynamic       0x0000000008053f0c       0xf0 /usr/lib/gcc/x86_64-linux-gnu/4.8/../../../../lib32/crt1.o
                0x0000000008053f0c                _DYNAMIC

.got            0x0000000008053ffc        0x4
 *(.got)
 .got           0x0000000008053ffc        0x4 /usr/lib/gcc/x86_64-linux-gnu/4.8/../../../../lib32/crt1.o
 *(.igot)
                0x0000000008054ff4                . = DATA_SEGMENT_RELRO_END (., (SIZEOF (.got.plt) >= 0xc)?0xc:0x0)

.got.plt        0x0000000008054000       0x78
 *(.got.plt)
 .got.plt       0x0000000008054000       0x78 /usr/lib/gcc/x86_64-linux-gnu/4.8/../../../../lib32/crt1.o
                0x0000000008054000                _GLOBAL_OFFSET_TABLE_
 *(.igot.plt)
 .igot.plt      0x0000000000000000        0x0 /usr/lib/gcc/x86_64-linux-gnu/4.8/../../../../lib32/crt1.o

.data           0x0000000008054078       0x18
 *(.data .data.* .gnu.linkonce.d.*)
 .data          0x0000000008054078        0x4 /usr/lib/gcc/x86_64-linux-gnu/4.8/../../../../lib32/crt1.o
                0x0000000008054078                data_start
                0x0000000008054078                __data_start
 .data          0x000000000805407c        0x0 /usr/lib/gcc/x86_64-linux-gnu/4.8/../../../../lib32/crti.o
 .data          0x000000000805407c        0x4 /usr/lib/gcc/x86_64-linux-gnu/4.8/32/crtbegin.o
                0x000000000805407c                __dso_handle
 .data          0x0000000008054080        0x0 /home/evanosky/workspace/kubos-core/bin/native/cpu/startup.o
 .data          0x0000000008054080        0x0 /home/evanosky/workspace/kubos-core/bin/native/core.a(kernel_init.o)
 .data.main_name
                0x0000000008054080        0x4 /home/evanosky/workspace/kubos-core/bin/native/core.a(kernel_init.o)
                0x0000000008054080                main_name
 .data.idle_name
                0x0000000008054084        0x4 /home/evanosky/workspace/kubos-core/bin/native/core.a(kernel_init.o)
                0x0000000008054084                idle_name
 .data          0x0000000008054088        0x0 /home/evanosky/workspace/kubos-core/bin/native/core.a(thread.o)
 .data          0x0000000008054088        0x0 /home/evanosky/workspace/kubos-core/bin/native/core.a(hwtimer.o)
 .data          0x0000000008054088        0x0 /home/evanosky/workspace/kubos-core/bin/native/core.a(lifo.o)
 .data          0x0000000008054088        0x0 /home/evanosky/workspace/kubos-core/bin/native/core.a(mutex.o)
 .data          0x0000000008054088        0x0 /home/evanosky/workspace/kubos-core/bin/native/core.a(priority_queue.o)
 .data          0x0000000008054088        0x0 /home/evanosky/workspace/kubos-core/bin/native/core.a(sched.o)
 .data          0x0000000008054088        0x0 /home/evanosky/workspace/kubos-core/bin/native/core.a(atomic.o)
 .data          0x0000000008054088        0x0 /home/evanosky/workspace/kubos-core/bin/native/core.a(bitarithm.o)
 .data          0x0000000008054088        0x0 /home/evanosky/workspace/kubos-core/bin/native/core.a(clist.o)
 .data          0x0000000008054088        0x0 /home/evanosky/workspace/kubos-core/bin/native/cpu.a(irq_cpu.o)
 .data          0x0000000008054088        0x0 /home/evanosky/workspace/kubos-core/bin/native/cpu.a(lpm_cpu.o)
 .data          0x0000000008054088        0x0 /home/evanosky/workspace/kubos-core/bin/native/cpu.a(native_cpu.o)
 .data          0x0000000008054088        0x0 /home/evanosky/workspace/kubos-core/bin/native/cpu.a(syscalls.o)
 .data          0x0000000008054088        0x0 /home/evanosky/workspace/kubos-core/bin/native/cpu.a(tramp.o)
 .data          0x0000000008054088        0x0 /home/evanosky/workspace/kubos-core/bin/native/hwtimer_compat.a(hwtimer_arch.o)
 .data          0x0000000008054088        0x0 /home/evanosky/workspace/kubos-core/bin/native/periph.a(timer.o)
 .data          0x0000000008054088        0x0 /home/evanosky/workspace/kubos-core/bin/native/vtimer.a(vtimer.o)
 .data.hwtimer_id
                0x0000000008054088        0x4 /home/evanosky/workspace/kubos-core/bin/native/vtimer.a(vtimer.o)
 .data          0x000000000805408c        0x0 /home/evanosky/workspace/kubos-core/bin/native/native_base.a(native-uart0.o)
 .data          0x000000000805408c        0x0 /home/evanosky/workspace/kubos-core/bin/native/native_base.a(board_init.o)
 .data          0x000000000805408c        0x0 /home/evanosky/workspace/kubos-core/bin/native/native_base.a(native-led.o)
 .data          0x000000000805408c        0x0 /home/evanosky/workspace/kubos-core/bin/native/kubos-core.a(main.o)
 .data          0x000000000805408c        0x0 /home/evanosky/workspace/kubos-core/bin/native/auto_init.a(auto_init.o)
 .data          0x000000000805408c        0x0 /home/evanosky/workspace/kubos-core/bin/native/core.a(msg.o)
 .data          0x000000000805408c        0x0 /home/evanosky/workspace/kubos-core/bin/native/posix.a(posix_io.o)
 .data          0x000000000805408c        0x0 /home/evanosky/workspace/kubos-core/bin/native/shell.a(shell.o)
 .data.INCORRECT_QUOTING.2584
                0x000000000805408c        0x4 /home/evanosky/workspace/kubos-core/bin/native/shell.a(shell.o)
 .data          0x0000000008054090        0x0 /home/evanosky/workspace/kubos-core/bin/native/timex.a(timex.o)
 .data          0x0000000008054090        0x0 /home/evanosky/workspace/kubos-core/bin/native/uart0.a(uart0.o)
 .data          0x0000000008054090        0x0 /home/evanosky/workspace/kubos-core/bin/native/core.a(ringbuffer.o)
 .data          0x0000000008054090        0x0 /home/evanosky/workspace/kubos-core/bin/native/sys.a(chardev_thread.o)
 .data          0x0000000008054090        0x0 /usr/lib32/libc_nonshared.a(elf-init.oS)
 .data          0x0000000008054090        0x0 /usr/lib/gcc/x86_64-linux-gnu/4.8/32/crtend.o
 .data          0x0000000008054090        0x0 /usr/lib/gcc/x86_64-linux-gnu/4.8/../../../../lib32/crtn.o

.tm_clone_table
                0x0000000008054090        0x0
 .tm_clone_table
                0x0000000008054090        0x0 /usr/lib/gcc/x86_64-linux-gnu/4.8/32/crtbegin.o
 .tm_clone_table
                0x0000000008054090        0x0 /usr/lib/gcc/x86_64-linux-gnu/4.8/32/crtend.o

.data1
 *(.data1)
                0x0000000008054090                _edata = .
                0x0000000008054090                PROVIDE (edata, .)
                0x0000000008054090                . = .
                0x0000000008054090                __bss_start = .

.bss            0x00000000080540a0     0xec20
 *(.dynbss)
 .dynbss        0x0000000000000000        0x0 /usr/lib/gcc/x86_64-linux-gnu/4.8/../../../../lib32/crt1.o
 *(.bss .bss.* .gnu.linkonce.b.*)
 .bss           0x00000000080540a0        0x0 /usr/lib/gcc/x86_64-linux-gnu/4.8/../../../../lib32/crt1.o
 .bss           0x00000000080540a0        0x0 /usr/lib/gcc/x86_64-linux-gnu/4.8/../../../../lib32/crti.o
 .bss           0x00000000080540a0        0x1 /usr/lib/gcc/x86_64-linux-gnu/4.8/32/crtbegin.o
 .bss           0x00000000080540a1        0x0 /home/evanosky/workspace/kubos-core/bin/native/cpu/startup.o
 *fill*         0x00000000080540a1        0x3 
 .bss._native_null_in_pipe
                0x00000000080540a4        0x8 /home/evanosky/workspace/kubos-core/bin/native/cpu/startup.o
                0x00000000080540a4                _native_null_in_pipe
 .bss._native_null_out_file
                0x00000000080540ac        0x4 /home/evanosky/workspace/kubos-core/bin/native/cpu/startup.o
                0x00000000080540ac                _native_null_out_file
 .bss._progname
                0x00000000080540b0        0x4 /home/evanosky/workspace/kubos-core/bin/native/cpu/startup.o
                0x00000000080540b0                _progname
 .bss._native_argv
                0x00000000080540b4        0x4 /home/evanosky/workspace/kubos-core/bin/native/cpu/startup.o
                0x00000000080540b4                _native_argv
 .bss._native_pid
                0x00000000080540b8        0x4 /home/evanosky/workspace/kubos-core/bin/native/cpu/startup.o
                0x00000000080540b8                _native_pid
 .bss._native_id
                0x00000000080540bc        0x4 /home/evanosky/workspace/kubos-core/bin/native/cpu/startup.o
                0x00000000080540bc                _native_id
 .bss._native_rng_seed
                0x00000000080540c0        0x4 /home/evanosky/workspace/kubos-core/bin/native/cpu/startup.o
                0x00000000080540c0                _native_rng_seed
 .bss._native_rng_mode
                0x00000000080540c4        0x4 /home/evanosky/workspace/kubos-core/bin/native/cpu/startup.o
                0x00000000080540c4                _native_rng_mode
 .bss._native_unix_socket_path
                0x00000000080540c8        0x4 /home/evanosky/workspace/kubos-core/bin/native/cpu/startup.o
                0x00000000080540c8                _native_unix_socket_path
 .bss           0x00000000080540cc        0x0 /home/evanosky/workspace/kubos-core/bin/native/core.a(kernel_init.o)
 .bss.lpm_prevent_sleep
                0x00000000080540cc        0x4 /home/evanosky/workspace/kubos-core/bin/native/core.a(kernel_init.o)
                0x00000000080540cc                lpm_prevent_sleep
 *fill*         0x00000000080540d0       0x10 
 .bss.main_stack
                0x00000000080540e0     0x4000 /home/evanosky/workspace/kubos-core/bin/native/core.a(kernel_init.o)
 .bss.idle_stack
                0x00000000080580e0     0x2000 /home/evanosky/workspace/kubos-core/bin/native/core.a(kernel_init.o)
 .bss           0x000000000805a0e0        0x0 /home/evanosky/workspace/kubos-core/bin/native/core.a(thread.o)
 .bss           0x000000000805a0e0        0x0 /home/evanosky/workspace/kubos-core/bin/native/core.a(hwtimer.o)
 .bss.timer     0x000000000805a0e0        0x8 /home/evanosky/workspace/kubos-core/bin/native/core.a(hwtimer.o)
 .bss.lifo      0x000000000805a0e8        0x8 /home/evanosky/workspace/kubos-core/bin/native/core.a(hwtimer.o)
 .bss           0x000000000805a0f0        0x0 /home/evanosky/workspace/kubos-core/bin/native/core.a(lifo.o)
 .bss           0x000000000805a0f0        0x0 /home/evanosky/workspace/kubos-core/bin/native/core.a(mutex.o)
 .bss           0x000000000805a0f0        0x0 /home/evanosky/workspace/kubos-core/bin/native/core.a(priority_queue.o)
 .bss           0x000000000805a0f0        0x0 /home/evanosky/workspace/kubos-core/bin/native/core.a(sched.o)
 .bss.sched_num_threads
                0x000000000805a0f0        0x4 /home/evanosky/workspace/kubos-core/bin/native/core.a(sched.o)
                0x000000000805a0f0                sched_num_threads
 .bss.sched_context_switch_request
                0x000000000805a0f4        0x4 /home/evanosky/workspace/kubos-core/bin/native/core.a(sched.o)
                0x000000000805a0f4                sched_context_switch_request
 *fill*         0x000000000805a0f8        0x8 
 .bss.sched_threads
                0x000000000805a100       0x84 /home/evanosky/workspace/kubos-core/bin/native/core.a(sched.o)
                0x000000000805a100                sched_threads
 .bss.sched_active_thread
                0x000000000805a184        0x4 /home/evanosky/workspace/kubos-core/bin/native/core.a(sched.o)
                0x000000000805a184                sched_active_thread
 .bss.sched_active_pid
                0x000000000805a188        0x2 /home/evanosky/workspace/kubos-core/bin/native/core.a(sched.o)
                0x000000000805a188                sched_active_pid
 *fill*         0x000000000805a18a       0x16 
 .bss.sched_runqueues
                0x000000000805a1a0       0x40 /home/evanosky/workspace/kubos-core/bin/native/core.a(sched.o)
                0x000000000805a1a0                sched_runqueues
 .bss.runqueue_bitcache
                0x000000000805a1e0        0x4 /home/evanosky/workspace/kubos-core/bin/native/core.a(sched.o)
 .bss           0x000000000805a1e4        0x0 /home/evanosky/workspace/kubos-core/bin/native/core.a(atomic.o)
 .bss           0x000000000805a1e4        0x0 /home/evanosky/workspace/kubos-core/bin/native/core.a(bitarithm.o)
 .bss           0x000000000805a1e4        0x0 /home/evanosky/workspace/kubos-core/bin/native/core.a(clist.o)
 .bss           0x000000000805a1e4        0x0 /home/evanosky/workspace/kubos-core/bin/native/cpu.a(irq_cpu.o)
 .bss.native_interrupts_enabled
                0x000000000805a1e4        0x4 /home/evanosky/workspace/kubos-core/bin/native/cpu.a(irq_cpu.o)
                0x000000000805a1e4                native_interrupts_enabled
 .bss._native_in_isr
                0x000000000805a1e8        0x4 /home/evanosky/workspace/kubos-core/bin/native/cpu.a(irq_cpu.o)
                0x000000000805a1e8                _native_in_isr
 .bss._native_in_syscall
                0x000000000805a1ec        0x4 /home/evanosky/workspace/kubos-core/bin/native/cpu.a(irq_cpu.o)
                0x000000000805a1ec                _native_in_syscall
 *fill*         0x000000000805a1f0       0x10 
 .bss._native_sig_set
                0x000000000805a200       0x80 /home/evanosky/workspace/kubos-core/bin/native/cpu.a(irq_cpu.o)
 .bss._native_sig_set_dint
                0x000000000805a280       0x80 /home/evanosky/workspace/kubos-core/bin/native/cpu.a(irq_cpu.o)
 .bss.__isr_stack
                0x000000000805a300     0x2000 /home/evanosky/workspace/kubos-core/bin/native/cpu.a(irq_cpu.o)
                0x000000000805a300                __isr_stack
 .bss.native_isr_context
                0x000000000805c300      0x15c /home/evanosky/workspace/kubos-core/bin/native/cpu.a(irq_cpu.o)
                0x000000000805c300                native_isr_context
 .bss._native_cur_ctx
                0x000000000805c45c        0x4 /home/evanosky/workspace/kubos-core/bin/native/cpu.a(irq_cpu.o)
                0x000000000805c45c                _native_cur_ctx
 .bss._native_isr_ctx
                0x000000000805c460        0x4 /home/evanosky/workspace/kubos-core/bin/native/cpu.a(irq_cpu.o)
                0x000000000805c460                _native_isr_ctx
 .bss._native_saved_eip
                0x000000000805c464        0x4 /home/evanosky/workspace/kubos-core/bin/native/cpu.a(irq_cpu.o)
                0x000000000805c464                _native_saved_eip
 .bss._native_sigpend
                0x000000000805c468        0x4 /home/evanosky/workspace/kubos-core/bin/native/cpu.a(irq_cpu.o)
                0x000000000805c468                _native_sigpend
 .bss._sig_pipefd
                0x000000000805c46c        0x8 /home/evanosky/workspace/kubos-core/bin/native/cpu.a(irq_cpu.o)
                0x000000000805c46c                _sig_pipefd
 *fill*         0x000000000805c474        0xc 
 .bss.native_irq_handlers
                0x000000000805c480      0x3fc /home/evanosky/workspace/kubos-core/bin/native/cpu.a(irq_cpu.o)
 *fill*         0x000000000805c87c        0x4 
 .bss.sigalt_stk
                0x000000000805c880     0x2000 /home/evanosky/workspace/kubos-core/bin/native/cpu.a(irq_cpu.o)
                0x000000000805c880                sigalt_stk
 .bss.sigstk.4977
                0x000000000805e880        0xc /home/evanosky/workspace/kubos-core/bin/native/cpu.a(irq_cpu.o)
 .bss           0x000000000805e88c        0x0 /home/evanosky/workspace/kubos-core/bin/native/cpu.a(lpm_cpu.o)
 .bss.native_lpm
                0x000000000805e88c        0x4 /home/evanosky/workspace/kubos-core/bin/native/cpu.a(lpm_cpu.o)
 .bss           0x000000000805e890        0x0 /home/evanosky/workspace/kubos-core/bin/native/cpu.a(native_cpu.o)
 *fill*         0x000000000805e890       0x10 
 .bss.end_context
                0x000000000805e8a0      0x15c /home/evanosky/workspace/kubos-core/bin/native/cpu.a(native_cpu.o)
                0x000000000805e8a0                end_context
 *fill*         0x000000000805e9fc        0x4 
 .bss.__end_stack
                0x000000000805ea00     0x2000 /home/evanosky/workspace/kubos-core/bin/native/cpu.a(native_cpu.o)
                0x000000000805ea00                __end_stack
 .bss._native_rfds
                0x0000000008060a00       0x80 /home/evanosky/workspace/kubos-core/bin/native/cpu.a(native_cpu.o)
                0x0000000008060a00                _native_rfds
 .bss           0x0000000008060a80        0x0 /home/evanosky/workspace/kubos-core/bin/native/cpu.a(syscalls.o)
 .bss.real_read
                0x0000000008060a80        0x4 /home/evanosky/workspace/kubos-core/bin/native/cpu.a(syscalls.o)
                0x0000000008060a80                real_read
 .bss.real_write
                0x0000000008060a84        0x4 /home/evanosky/workspace/kubos-core/bin/native/cpu.a(syscalls.o)
                0x0000000008060a84                real_write
 .bss.real_fread
                0x0000000008060a88        0x4 /home/evanosky/workspace/kubos-core/bin/native/cpu.a(syscalls.o)
                0x0000000008060a88                real_fread
 .bss.real_clearerr
                0x0000000008060a8c        0x4 /home/evanosky/workspace/kubos-core/bin/native/cpu.a(syscalls.o)
                0x0000000008060a8c                real_clearerr
 .bss.real_exit
                0x0000000008060a90        0x4 /home/evanosky/workspace/kubos-core/bin/native/cpu.a(syscalls.o)
                0x0000000008060a90                real_exit
 .bss.real_free
                0x0000000008060a94        0x4 /home/evanosky/workspace/kubos-core/bin/native/cpu.a(syscalls.o)
                0x0000000008060a94                real_free
 .bss.real_malloc
                0x0000000008060a98        0x4 /home/evanosky/workspace/kubos-core/bin/native/cpu.a(syscalls.o)
                0x0000000008060a98                real_malloc
 .bss.real_calloc
                0x0000000008060a9c        0x4 /home/evanosky/workspace/kubos-core/bin/native/cpu.a(syscalls.o)
                0x0000000008060a9c                real_calloc
 .bss.real_realloc
                0x0000000008060aa0        0x4 /home/evanosky/workspace/kubos-core/bin/native/cpu.a(syscalls.o)
                0x0000000008060aa0                real_realloc
 .bss.real_freeaddrinfo
                0x0000000008060aa4        0x4 /home/evanosky/workspace/kubos-core/bin/native/cpu.a(syscalls.o)
                0x0000000008060aa4                real_freeaddrinfo
 .bss.real_freeifaddrs
                0x0000000008060aa8        0x4 /home/evanosky/workspace/kubos-core/bin/native/cpu.a(syscalls.o)
                0x0000000008060aa8                real_freeifaddrs
 .bss.real_srandom
                0x0000000008060aac        0x4 /home/evanosky/workspace/kubos-core/bin/native/cpu.a(syscalls.o)
                0x0000000008060aac                real_srandom
 .bss.real_accept
                0x0000000008060ab0        0x4 /home/evanosky/workspace/kubos-core/bin/native/cpu.a(syscalls.o)
                0x0000000008060ab0                real_accept
 .bss.real_bind
                0x0000000008060ab4        0x4 /home/evanosky/workspace/kubos-core/bin/native/cpu.a(syscalls.o)
                0x0000000008060ab4                real_bind
 .bss.real_printf
                0x0000000008060ab8        0x4 /home/evanosky/workspace/kubos-core/bin/native/cpu.a(syscalls.o)
                0x0000000008060ab8                real_printf
 .bss.real_getaddrinfo
                0x0000000008060abc        0x4 /home/evanosky/workspace/kubos-core/bin/native/cpu.a(syscalls.o)
                0x0000000008060abc                real_getaddrinfo
 .bss.real_getifaddrs
                0x0000000008060ac0        0x4 /home/evanosky/workspace/kubos-core/bin/native/cpu.a(syscalls.o)
                0x0000000008060ac0                real_getifaddrs
 .bss.real_getpid
                0x0000000008060ac4        0x4 /home/evanosky/workspace/kubos-core/bin/native/cpu.a(syscalls.o)
                0x0000000008060ac4                real_getpid
 .bss.real_chdir
                0x0000000008060ac8        0x4 /home/evanosky/workspace/kubos-core/bin/native/cpu.a(syscalls.o)
                0x0000000008060ac8                real_chdir
 .bss.real_close
                0x0000000008060acc        0x4 /home/evanosky/workspace/kubos-core/bin/native/cpu.a(syscalls.o)
                0x0000000008060acc                real_close
 .bss.real_creat
                0x0000000008060ad0        0x4 /home/evanosky/workspace/kubos-core/bin/native/cpu.a(syscalls.o)
                0x0000000008060ad0                real_creat
 .bss.real_dup2
                0x0000000008060ad4        0x4 /home/evanosky/workspace/kubos-core/bin/native/cpu.a(syscalls.o)
                0x0000000008060ad4                real_dup2
 .bss.real_execve
                0x0000000008060ad8        0x4 /home/evanosky/workspace/kubos-core/bin/native/cpu.a(syscalls.o)
                0x0000000008060ad8                real_execve
 .bss.real_fork
                0x0000000008060adc        0x4 /home/evanosky/workspace/kubos-core/bin/native/cpu.a(syscalls.o)
                0x0000000008060adc                real_fork
 .bss.real_feof
                0x0000000008060ae0        0x4 /home/evanosky/workspace/kubos-core/bin/native/cpu.a(syscalls.o)
                0x0000000008060ae0                real_feof
 .bss.real_ferror
                0x0000000008060ae4        0x4 /home/evanosky/workspace/kubos-core/bin/native/cpu.a(syscalls.o)
                0x0000000008060ae4                real_ferror
 .bss.real_listen
                0x0000000008060ae8        0x4 /home/evanosky/workspace/kubos-core/bin/native/cpu.a(syscalls.o)
                0x0000000008060ae8                real_listen
 .bss.real_ioctl
                0x0000000008060aec        0x4 /home/evanosky/workspace/kubos-core/bin/native/cpu.a(syscalls.o)
                0x0000000008060aec                real_ioctl
 .bss.real_open
                0x0000000008060af0        0x4 /home/evanosky/workspace/kubos-core/bin/native/cpu.a(syscalls.o)
                0x0000000008060af0                real_open
 .bss.real_pause
                0x0000000008060af4        0x4 /home/evanosky/workspace/kubos-core/bin/native/cpu.a(syscalls.o)
                0x0000000008060af4                real_pause
 .bss.real_pipe
                0x0000000008060af8        0x4 /home/evanosky/workspace/kubos-core/bin/native/cpu.a(syscalls.o)
                0x0000000008060af8                real_pipe
 .bss.real_select
                0x0000000008060afc        0x4 /home/evanosky/workspace/kubos-core/bin/native/cpu.a(syscalls.o)
                0x0000000008060afc                real_select
 .bss.real_setitimer
                0x0000000008060b00        0x4 /home/evanosky/workspace/kubos-core/bin/native/cpu.a(syscalls.o)
                0x0000000008060b00                real_setitimer
 .bss.real_setsid
                0x0000000008060b04        0x4 /home/evanosky/workspace/kubos-core/bin/native/cpu.a(syscalls.o)
                0x0000000008060b04                real_setsid
 .bss.real_setsockopt
                0x0000000008060b08        0x4 /home/evanosky/workspace/kubos-core/bin/native/cpu.a(syscalls.o)
                0x0000000008060b08                real_setsockopt
 .bss.real_socket
                0x0000000008060b0c        0x4 /home/evanosky/workspace/kubos-core/bin/native/cpu.a(syscalls.o)
                0x0000000008060b0c                real_socket
 .bss.real_unlink
                0x0000000008060b10        0x4 /home/evanosky/workspace/kubos-core/bin/native/cpu.a(syscalls.o)
                0x0000000008060b10                real_unlink
 .bss.real_random
                0x0000000008060b14        0x4 /home/evanosky/workspace/kubos-core/bin/native/cpu.a(syscalls.o)
                0x0000000008060b14                real_random
 .bss.real_gai_strerror
                0x0000000008060b18        0x4 /home/evanosky/workspace/kubos-core/bin/native/cpu.a(syscalls.o)
                0x0000000008060b18                real_gai_strerror
 .bss.real_fopen
                0x0000000008060b1c        0x4 /home/evanosky/workspace/kubos-core/bin/native/cpu.a(syscalls.o)
                0x0000000008060b1c                real_fopen
 .bss.real_umask
                0x0000000008060b20        0x4 /home/evanosky/workspace/kubos-core/bin/native/cpu.a(syscalls.o)
                0x0000000008060b20                real_umask
 .bss.real_clock_gettime
                0x0000000008060b24        0x4 /home/evanosky/workspace/kubos-core/bin/native/cpu.a(syscalls.o)
                0x0000000008060b24                real_clock_gettime
 .bss._native_in_calloc
                0x0000000008060b28        0x4 /home/evanosky/workspace/kubos-core/bin/native/cpu.a(syscalls.o)
                0x0000000008060b28                _native_in_calloc
 .bss           0x0000000008060b2c        0x0 /home/evanosky/workspace/kubos-core/bin/native/cpu.a(tramp.o)
 .bss           0x0000000008060b2c        0x0 /home/evanosky/workspace/kubos-core/bin/native/hwtimer_compat.a(hwtimer_arch.o)
 .bss.timeout_handler
                0x0000000008060b2c        0x4 /home/evanosky/workspace/kubos-core/bin/native/hwtimer_compat.a(hwtimer_arch.o)
                0x0000000008060b2c                timeout_handler
 .bss           0x0000000008060b30        0x0 /home/evanosky/workspace/kubos-core/bin/native/periph.a(timer.o)
 .bss.time_null
                0x0000000008060b30        0x4 /home/evanosky/workspace/kubos-core/bin/native/periph.a(timer.o)
 .bss._callback
                0x0000000008060b34        0x4 /home/evanosky/workspace/kubos-core/bin/native/periph.a(timer.o)
 .bss.itv       0x0000000008060b38       0x10 /home/evanosky/workspace/kubos-core/bin/native/periph.a(timer.o)
 .bss           0x0000000008060b48        0x0 /home/evanosky/workspace/kubos-core/bin/native/vtimer.a(vtimer.o)
 .bss.longterm_priority_queue_root
                0x0000000008060b48        0x4 /home/evanosky/workspace/kubos-core/bin/native/vtimer.a(vtimer.o)
 .bss.shortterm_priority_queue_root
                0x0000000008060b4c        0x4 /home/evanosky/workspace/kubos-core/bin/native/vtimer.a(vtimer.o)
 *fill*         0x0000000008060b50       0x10 
 .bss.longterm_tick_timer
                0x0000000008060b60       0x24 /home/evanosky/workspace/kubos-core/bin/native/vtimer.a(vtimer.o)
 .bss.longterm_tick_start
                0x0000000008060b84        0x4 /home/evanosky/workspace/kubos-core/bin/native/vtimer.a(vtimer.o)
 .bss.in_callback
                0x0000000008060b88        0x4 /home/evanosky/workspace/kubos-core/bin/native/vtimer.a(vtimer.o)
 .bss.hwtimer_next_absolute
                0x0000000008060b8c        0x4 /home/evanosky/workspace/kubos-core/bin/native/vtimer.a(vtimer.o)
 .bss           0x0000000008060b90        0x0 /home/evanosky/workspace/kubos-core/bin/native/native_base.a(native-uart0.o)
 .bss._native_uart_sock
                0x0000000008060b90        0x4 /home/evanosky/workspace/kubos-core/bin/native/native_base.a(native-uart0.o)
                0x0000000008060b90                _native_uart_sock
 .bss._native_uart_conn
                0x0000000008060b94        0x4 /home/evanosky/workspace/kubos-core/bin/native/native_base.a(native-uart0.o)
                0x0000000008060b94                _native_uart_conn
 .bss._native_replay_enabled
                0x0000000008060b98        0x4 /home/evanosky/workspace/kubos-core/bin/native/native_base.a(native-uart0.o)
                0x0000000008060b98                _native_replay_enabled
 .bss._native_replay_buffer
                0x0000000008060b9c        0x4 /home/evanosky/workspace/kubos-core/bin/native/native_base.a(native-uart0.o)
                0x0000000008060b9c                _native_replay_buffer
 .bss._native_uart_rfds
                0x0000000008060ba0       0x80 /home/evanosky/workspace/kubos-core/bin/native/native_base.a(native-uart0.o)
                0x0000000008060ba0                _native_uart_rfds
 .bss           0x0000000008060c20        0x0 /home/evanosky/workspace/kubos-core/bin/native/native_base.a(board_init.o)
 .bss           0x0000000008060c20        0x0 /home/evanosky/workspace/kubos-core/bin/native/native_base.a(native-led.o)
 .bss           0x0000000008060c20        0x0 /home/evanosky/workspace/kubos-core/bin/native/kubos-core.a(main.o)
 .bss           0x0000000008060c20        0x0 /home/evanosky/workspace/kubos-core/bin/native/auto_init.a(auto_init.o)
 .bss           0x0000000008060c20        0x0 /home/evanosky/workspace/kubos-core/bin/native/core.a(msg.o)
 .bss           0x0000000008060c20        0x0 /home/evanosky/workspace/kubos-core/bin/native/posix.a(posix_io.o)
 .bss           0x0000000008060c20        0x0 /home/evanosky/workspace/kubos-core/bin/native/shell.a(shell.o)
 .bss           0x0000000008060c20        0x0 /home/evanosky/workspace/kubos-core/bin/native/timex.a(timex.o)
 .bss           0x0000000008060c20        0x0 /home/evanosky/workspace/kubos-core/bin/native/uart0.a(uart0.o)
 .bss.uart0_handler_pid
                0x0000000008060c20        0x2 /home/evanosky/workspace/kubos-core/bin/native/uart0.a(uart0.o)
                0x0000000008060c20                uart0_handler_pid
 *fill*         0x0000000008060c22        0x2 
 .bss.uart0_ringbuffer
                0x0000000008060c24       0x10 /home/evanosky/workspace/kubos-core/bin/native/uart0.a(uart0.o)
                0x0000000008060c24                uart0_ringbuffer
 *fill*         0x0000000008060c34        0xc 
 .bss.buffer    0x0000000008060c40       0x80 /home/evanosky/workspace/kubos-core/bin/native/uart0.a(uart0.o)
 .bss.uart0_thread_stack
                0x0000000008060cc0     0x2000 /home/evanosky/workspace/kubos-core/bin/native/uart0.a(uart0.o)
 .bss           0x0000000008062cc0        0x0 /home/evanosky/workspace/kubos-core/bin/native/core.a(ringbuffer.o)
 .bss           0x0000000008062cc0        0x0 /home/evanosky/workspace/kubos-core/bin/native/sys.a(chardev_thread.o)
 .bss           0x0000000008062cc0        0x0 /usr/lib32/libc_nonshared.a(elf-init.oS)
 .bss           0x0000000008062cc0        0x0 /usr/lib/gcc/x86_64-linux-gnu/4.8/32/crtend.o
 .bss           0x0000000008062cc0        0x0 /usr/lib/gcc/x86_64-linux-gnu/4.8/../../../../lib32/crtn.o
 *(COMMON)
                0x0000000008062cc0                . = ALIGN ((. != 0x0)?0x4:0x1)
                0x0000000008062cc0                . = ALIGN (0x4)
                0x0000000008062cc0                . = SEGMENT_START ("ldata-segment", .)
                0x0000000008062cc0                . = ALIGN (0x4)
                0x0000000008062cc0                _end = .
                0x0000000008062cc0                PROVIDE (end, .)
                0x0000000008062cc0                . = DATA_SEGMENT_END (.)

.stab
 *(.stab)

.stabstr
 *(.stabstr)

.stab.excl
 *(.stab.excl)

.stab.exclstr
 *(.stab.exclstr)

.stab.index
 *(.stab.index)

.stab.indexstr
 *(.stab.indexstr)

.comment        0x0000000000000000       0x4d
 *(.comment)
 .comment       0x0000000000000000       0x29 /usr/lib/gcc/x86_64-linux-gnu/4.8/32/crtbegin.o
                                         0x2a (size before relaxing)
 .comment       0x0000000000000000       0x2a /home/evanosky/workspace/kubos-core/bin/native/cpu/startup.o
 .comment       0x0000000000000000       0x2a /home/evanosky/workspace/kubos-core/bin/native/core.a(kernel_init.o)
 .comment       0x0000000000000000       0x2a /home/evanosky/workspace/kubos-core/bin/native/core.a(thread.o)
 .comment       0x0000000000000000       0x2a /home/evanosky/workspace/kubos-core/bin/native/core.a(hwtimer.o)
 .comment       0x0000000000000000       0x2a /home/evanosky/workspace/kubos-core/bin/native/core.a(lifo.o)
 .comment       0x0000000000000000       0x2a /home/evanosky/workspace/kubos-core/bin/native/core.a(mutex.o)
 .comment       0x0000000000000000       0x2a /home/evanosky/workspace/kubos-core/bin/native/core.a(priority_queue.o)
 .comment       0x0000000000000000       0x2a /home/evanosky/workspace/kubos-core/bin/native/core.a(sched.o)
 .comment       0x0000000000000000       0x2a /home/evanosky/workspace/kubos-core/bin/native/core.a(atomic.o)
 .comment       0x0000000000000000       0x2a /home/evanosky/workspace/kubos-core/bin/native/core.a(bitarithm.o)
 .comment       0x0000000000000000       0x2a /home/evanosky/workspace/kubos-core/bin/native/core.a(clist.o)
 .comment       0x0000000000000000       0x2a /home/evanosky/workspace/kubos-core/bin/native/cpu.a(irq_cpu.o)
 .comment       0x0000000000000000       0x2a /home/evanosky/workspace/kubos-core/bin/native/cpu.a(lpm_cpu.o)
 .comment       0x0000000000000000       0x2a /home/evanosky/workspace/kubos-core/bin/native/cpu.a(native_cpu.o)
 .comment       0x0000000000000000       0x2a /home/evanosky/workspace/kubos-core/bin/native/cpu.a(syscalls.o)
 .comment       0x0000000000000000       0x2a /home/evanosky/workspace/kubos-core/bin/native/hwtimer_compat.a(hwtimer_arch.o)
 .comment       0x0000000000000000       0x2a /home/evanosky/workspace/kubos-core/bin/native/periph.a(timer.o)
 .comment       0x0000000000000000       0x2a /home/evanosky/workspace/kubos-core/bin/native/vtimer.a(vtimer.o)
 .comment       0x0000000000000000       0x2a /home/evanosky/workspace/kubos-core/bin/native/native_base.a(native-uart0.o)
 .comment       0x0000000000000000       0x2a /home/evanosky/workspace/kubos-core/bin/native/native_base.a(board_init.o)
 .comment       0x0000000000000000       0x2a /home/evanosky/workspace/kubos-core/bin/native/native_base.a(native-led.o)
 .comment       0x0000000000000000       0x2a /home/evanosky/workspace/kubos-core/bin/native/kubos-core.a(main.o)
 .comment       0x0000000000000000       0x2a /home/evanosky/workspace/kubos-core/bin/native/auto_init.a(auto_init.o)
 .comment       0x0000000000000000       0x2a /home/evanosky/workspace/kubos-core/bin/native/core.a(msg.o)
 .comment       0x0000000000000000       0x2a /home/evanosky/workspace/kubos-core/bin/native/posix.a(posix_io.o)
 .comment       0x0000000000000000       0x2a /home/evanosky/workspace/kubos-core/bin/native/shell.a(shell.o)
 .comment       0x0000000000000000       0x2a /home/evanosky/workspace/kubos-core/bin/native/timex.a(timex.o)
 .comment       0x0000000000000000       0x2a /home/evanosky/workspace/kubos-core/bin/native/uart0.a(uart0.o)
 .comment       0x0000000000000000       0x2a /home/evanosky/workspace/kubos-core/bin/native/core.a(ringbuffer.o)
 .comment       0x0000000000000000       0x2a /home/evanosky/workspace/kubos-core/bin/native/sys.a(chardev_thread.o)
 .comment       0x0000000000000029       0x24 /usr/lib32/libc_nonshared.a(elf-init.oS)
                                         0x25 (size before relaxing)
 .comment       0x0000000000000000       0x2a /usr/lib/gcc/x86_64-linux-gnu/4.8/32/crtend.o

.debug
 *(.debug)

.line
 *(.line)

.debug_srcinfo
 *(.debug_srcinfo)

.debug_sfnames
 *(.debug_sfnames)

.debug_aranges
 *(.debug_aranges)

.debug_pubnames
 *(.debug_pubnames)

.debug_info
 *(.debug_info .gnu.linkonce.wi.*)

.debug_abbrev
 *(.debug_abbrev)

.debug_line
 *(.debug_line .debug_line.* .debug_line_end)

.debug_frame
 *(.debug_frame)

.debug_str
 *(.debug_str)

.debug_loc
 *(.debug_loc)

.debug_macinfo
 *(.debug_macinfo)

.debug_weaknames
 *(.debug_weaknames)

.debug_funcnames
 *(.debug_funcnames)

.debug_typenames
 *(.debug_typenames)

.debug_varnames
 *(.debug_varnames)

.debug_pubtypes
 *(.debug_pubtypes)

.debug_ranges
 *(.debug_ranges)

.debug_macro
 *(.debug_macro)

.gnu.attributes
 *(.gnu.attributes)

/DISCARD/
 *(.note.GNU-stack)
 *(.gnu_debuglink)
 *(.gnu.lto_*)
OUTPUT(/home/evanosky/workspace/kubos-core/bin/native/kubos-core.elf elf32-i386)

Cross Reference Table

Symbol                                            File
GCC_3.0                                           /lib32/libc.so.6
GLIBC_2.0                                         /usr/lib/gcc/x86_64-linux-gnu/4.8/../../../../lib32/libdl.so
                                                  /lib32/ld-linux.so.2
                                                  /lib32/libc.so.6
GLIBC_2.1                                         /usr/lib/gcc/x86_64-linux-gnu/4.8/../../../../lib32/libdl.so
                                                  /lib32/ld-linux.so.2
                                                  /lib32/libc.so.6
GLIBC_2.1.1                                       /lib32/libc.so.6
GLIBC_2.1.2                                       /lib32/libc.so.6
GLIBC_2.1.3                                       /lib32/libc.so.6
GLIBC_2.10                                        /lib32/libc.so.6
GLIBC_2.11                                        /lib32/libc.so.6
GLIBC_2.12                                        /lib32/libc.so.6
GLIBC_2.13                                        /lib32/libc.so.6
GLIBC_2.14                                        /lib32/libc.so.6
GLIBC_2.15                                        /lib32/libc.so.6
GLIBC_2.16                                        /lib32/libc.so.6
GLIBC_2.17                                        /lib32/libc.so.6
GLIBC_2.18                                        /lib32/libc.so.6
GLIBC_2.2                                         /lib32/libc.so.6
GLIBC_2.2.1                                       /lib32/libc.so.6
GLIBC_2.2.2                                       /lib32/libc.so.6
GLIBC_2.2.3                                       /lib32/libc.so.6
GLIBC_2.2.4                                       /lib32/libc.so.6
GLIBC_2.2.6                                       /lib32/libc.so.6
GLIBC_2.3                                         /lib32/libc.so.6
                                                  /lib32/ld-linux.so.2
GLIBC_2.3.2                                       /lib32/libc.so.6
GLIBC_2.3.3                                       /usr/lib/gcc/x86_64-linux-gnu/4.8/../../../../lib32/libdl.so
                                                  /lib32/libc.so.6
GLIBC_2.3.4                                       /usr/lib/gcc/x86_64-linux-gnu/4.8/../../../../lib32/libdl.so
                                                  /lib32/libc.so.6
GLIBC_2.4                                         /lib32/libc.so.6
                                                  /lib32/ld-linux.so.2
GLIBC_2.5                                         /lib32/libc.so.6
GLIBC_2.6                                         /lib32/libc.so.6
GLIBC_2.7                                         /lib32/libc.so.6
GLIBC_2.8                                         /lib32/libc.so.6
GLIBC_2.9                                         /lib32/libc.so.6
GLIBC_PRIVATE                                     /usr/lib/gcc/x86_64-linux-gnu/4.8/../../../../lib32/libdl.so
                                                  /lib32/ld-linux.so.2
                                                  /lib32/libc.so.6
_DYNAMIC                                          /usr/lib/gcc/x86_64-linux-gnu/4.8/../../../../lib32/crt1.o
_Exit                                             /lib32/libc.so.6
_Exit@@GLIBC_2.1.1                                /lib32/libc.so.6
_Exit@GLIBC_2.1.1                                 /lib32/libc.so.6
_GLOBAL_OFFSET_TABLE_                             /usr/lib/gcc/x86_64-linux-gnu/4.8/../../../../lib32/crt1.o
                                                  /usr/lib32/libc_nonshared.a(elf-init.oS)
                                                  /usr/lib/gcc/x86_64-linux-gnu/4.8/../../../../lib32/crti.o
_IO_fprintf                                       /lib32/libc.so.6
_IO_fprintf@@GLIBC_2.0                            /lib32/libc.so.6
_IO_fprintf@GLIBC_2.0                             /lib32/libc.so.6
_IO_stdin_used                                    /usr/lib/gcc/x86_64-linux-gnu/4.8/../../../../lib32/crt1.o
                                                  /lib32/libc.so.6
_ITM_deregisterTMCloneTable                       /usr/lib/gcc/x86_64-linux-gnu/4.8/../../../../lib32/libdl.so
                                                  /usr/lib/gcc/x86_64-linux-gnu/4.8/32/crtbegin.o
_ITM_registerTMCloneTable                         /usr/lib/gcc/x86_64-linux-gnu/4.8/../../../../lib32/libdl.so
                                                  /usr/lib/gcc/x86_64-linux-gnu/4.8/32/crtbegin.o
_Jv_RegisterClasses                               /usr/lib/gcc/x86_64-linux-gnu/4.8/../../../../lib32/libdl.so
                                                  /usr/lib/gcc/x86_64-linux-gnu/4.8/32/crtbegin.o
__TMC_END__                                       /usr/lib/gcc/x86_64-linux-gnu/4.8/32/crtend.o
                                                  /usr/lib/gcc/x86_64-linux-gnu/4.8/32/crtbegin.o
___brk_addr                                       /lib32/libc.so.6
___brk_addr@@GLIBC_2.0                            /lib32/libc.so.6
___brk_addr@GLIBC_2.0                             /lib32/libc.so.6
__after_morecore_hook                             /lib32/libc.so.6
__after_morecore_hook@@GLIBC_2.0                  /lib32/libc.so.6
__after_morecore_hook@GLIBC_2.0                   /lib32/libc.so.6
__close                                           /lib32/libc.so.6
__close@@GLIBC_2.0                                /lib32/libc.so.6
__close@GLIBC_2.0                                 /lib32/libc.so.6
__connect                                         /lib32/libc.so.6
__connect@@GLIBC_2.0                              /lib32/libc.so.6
__connect@GLIBC_2.0                               /lib32/libc.so.6
__ctype_get_mb_cur_max                            /lib32/libc.so.6
__ctype_get_mb_cur_max@@GLIBC_2.0                 /lib32/libc.so.6
__ctype_get_mb_cur_max@GLIBC_2.0                  /lib32/libc.so.6
__data_start                                      /usr/lib/gcc/x86_64-linux-gnu/4.8/../../../../lib32/crt1.o
__dso_handle                                      /usr/lib/gcc/x86_64-linux-gnu/4.8/32/crtbegin.o
__end_stack                                       /home/evanosky/workspace/kubos-core/bin/native/cpu.a(native_cpu.o)
__errno_location                                  /lib32/libc.so.6
                                                  /home/evanosky/workspace/kubos-core/bin/native/cpu.a(syscalls.o)
                                                  /home/evanosky/workspace/kubos-core/bin/native/cpu.a(lpm_cpu.o)
__errno_location@@GLIBC_2.0                       /lib32/libc.so.6
__errno_location@GLIBC_2.0                        /lib32/libc.so.6
__fcntl                                           /lib32/libc.so.6
__fcntl@@GLIBC_2.0                                /lib32/libc.so.6
__fcntl@GLIBC_2.0                                 /lib32/libc.so.6
__free_hook                                       /lib32/libc.so.6
__free_hook@@GLIBC_2.0                            /lib32/libc.so.6
__free_hook@GLIBC_2.0                             /lib32/libc.so.6
__getdelim                                        /lib32/libc.so.6
__getdelim@@GLIBC_2.0                             /lib32/libc.so.6
__getdelim@GLIBC_2.0                              /lib32/libc.so.6
__gmon_start__                                    /usr/lib/gcc/x86_64-linux-gnu/4.8/../../../../lib32/libdl.so
                                                  /usr/lib/gcc/x86_64-linux-gnu/4.8/../../../../lib32/crti.o
__init_array_end                                  /usr/lib32/libc_nonshared.a(elf-init.oS)
__init_array_start                                /usr/lib32/libc_nonshared.a(elf-init.oS)
__isascii_l                                       /lib32/libc.so.6
__isascii_l@@GLIBC_2.1                            /lib32/libc.so.6
__isascii_l@GLIBC_2.1                             /lib32/libc.so.6
__isr_stack                                       /home/evanosky/workspace/kubos-core/bin/native/cpu.a(irq_cpu.o)
                                                  /home/evanosky/workspace/kubos-core/bin/native/cpu.a(syscalls.o)
                                                  /home/evanosky/workspace/kubos-core/bin/native/cpu.a(native_cpu.o)
__libc_csu_fini                                   /usr/lib32/libc_nonshared.a(elf-init.oS)
                                                  /usr/lib/gcc/x86_64-linux-gnu/4.8/../../../../lib32/crt1.o
__libc_csu_init                                   /usr/lib32/libc_nonshared.a(elf-init.oS)
                                                  /usr/lib/gcc/x86_64-linux-gnu/4.8/../../../../lib32/crt1.o
__libc_secure_getenv                              /lib32/libc.so.6
__libc_secure_getenv@@GLIBC_PRIVATE               /lib32/libc.so.6
__libc_secure_getenv@GLIBC_PRIVATE                /lib32/libc.so.6
__libc_start_main                                 /lib32/libc.so.6
                                                  /usr/lib/gcc/x86_64-linux-gnu/4.8/../../../../lib32/crt1.o
__libc_start_main@@GLIBC_2.0                      /lib32/libc.so.6
__libc_start_main@GLIBC_2.0                       /lib32/libc.so.6
__lseek                                           /lib32/libc.so.6
__lseek@@GLIBC_2.0                                /lib32/libc.so.6
__lseek@GLIBC_2.0                                 /lib32/libc.so.6
__malloc_hook                                     /lib32/libc.so.6
__malloc_hook@@GLIBC_2.0                          /lib32/libc.so.6
__malloc_hook@GLIBC_2.0                           /lib32/libc.so.6
__malloc_initialize_hook                          /lib32/libc.so.6
__malloc_initialize_hook@@GLIBC_2.0               /lib32/libc.so.6
__malloc_initialize_hook@GLIBC_2.0                /lib32/libc.so.6
__memalign_hook                                   /lib32/libc.so.6
__memalign_hook@@GLIBC_2.0                        /lib32/libc.so.6
__memalign_hook@GLIBC_2.0                         /lib32/libc.so.6
__memset_zero_constant_len_parameter              /lib32/libc.so.6
__nanosleep                                       /lib32/libc.so.6
__nanosleep@@GLIBC_2.2.6                          /lib32/libc.so.6
__nanosleep@GLIBC_2.2.6                           /lib32/libc.so.6
__open                                            /lib32/libc.so.6
__open64                                          /lib32/libc.so.6
__open64@@GLIBC_2.2                               /lib32/libc.so.6
__open64@GLIBC_2.2                                /lib32/libc.so.6
__open@@GLIBC_2.0                                 /lib32/libc.so.6
__open@GLIBC_2.0                                  /lib32/libc.so.6
__poll                                            /lib32/libc.so.6
__poll@@GLIBC_2.1                                 /lib32/libc.so.6
__poll@GLIBC_2.1                                  /lib32/libc.so.6
__pread64                                         /lib32/libc.so.6
__pread64@@GLIBC_2.1                              /lib32/libc.so.6
__pread64@GLIBC_2.1                               /lib32/libc.so.6
__pthread_getspecific                             /usr/lib/gcc/x86_64-linux-gnu/4.8/../../../../lib32/libdl.so
__pthread_key_create                              /usr/lib/gcc/x86_64-linux-gnu/4.8/../../../../lib32/libdl.so
__pthread_once                                    /usr/lib/gcc/x86_64-linux-gnu/4.8/../../../../lib32/libdl.so
__pthread_setspecific                             /usr/lib/gcc/x86_64-linux-gnu/4.8/../../../../lib32/libdl.so
__pwrite64                                        /lib32/libc.so.6
__pwrite64@@GLIBC_2.1                             /lib32/libc.so.6
__pwrite64@GLIBC_2.1                              /lib32/libc.so.6
__read                                            /lib32/libc.so.6
__read@@GLIBC_2.0                                 /lib32/libc.so.6
__read@GLIBC_2.0                                  /lib32/libc.so.6
__realloc_hook                                    /lib32/libc.so.6
__realloc_hook@@GLIBC_2.0                         /lib32/libc.so.6
__realloc_hook@GLIBC_2.0                          /lib32/libc.so.6
__secure_getenv@GLIBC_2.0                         /lib32/libc.so.6
__send                                            /lib32/libc.so.6
__send@@GLIBC_2.0                                 /lib32/libc.so.6
__send@GLIBC_2.0                                  /lib32/libc.so.6
__sigaction                                       /lib32/libc.so.6
__sigaction@@GLIBC_2.0                            /lib32/libc.so.6
__sigaction@GLIBC_2.0                             /lib32/libc.so.6
__stack_chk_fail                                  /lib32/libc.so.6
                                                  /home/evanosky/workspace/kubos-core/bin/native/native_base.a(native-uart0.o)
                                                  /home/evanosky/workspace/kubos-core/bin/native/cpu/startup.o
__stack_chk_fail@@GLIBC_2.4                       /lib32/libc.so.6
__stack_chk_fail@GLIBC_2.4                        /lib32/libc.so.6
__toascii_l                                       /lib32/libc.so.6
__toascii_l@@GLIBC_2.1                            /lib32/libc.so.6
__toascii_l@GLIBC_2.1                             /lib32/libc.so.6
__vsnprintf                                       /lib32/libc.so.6
__vsnprintf@@GLIBC_2.0                            /lib32/libc.so.6
__vsnprintf@GLIBC_2.0                             /lib32/libc.so.6
__vsscanf                                         /lib32/libc.so.6
__vsscanf@@GLIBC_2.0                              /lib32/libc.so.6
__vsscanf@GLIBC_2.0                               /lib32/libc.so.6
__wait                                            /lib32/libc.so.6
__wait@@GLIBC_2.0                                 /lib32/libc.so.6
__wait@GLIBC_2.0                                  /lib32/libc.so.6
__write                                           /lib32/libc.so.6
__write@@GLIBC_2.0                                /lib32/libc.so.6
__write@GLIBC_2.0                                 /lib32/libc.so.6
__x86.get_pc_thunk.bx                             /usr/lib/gcc/x86_64-linux-gnu/4.8/../../../../lib32/crti.o
                                                  /usr/lib32/libc_nonshared.a(elf-init.oS)
__xpg_sigpause                                    /lib32/libc.so.6
__xpg_sigpause@@GLIBC_2.2                         /lib32/libc.so.6
__xpg_sigpause@GLIBC_2.2                          /lib32/libc.so.6
_dl_starting_up                                   /lib32/libc.so.6
_environ                                          /lib32/libc.so.6
_environ@@GLIBC_2.0                               /lib32/libc.so.6
_environ@GLIBC_2.0                                /lib32/libc.so.6
                                                  /usr/lib/gcc/x86_64-linux-gnu/4.8/../../../../lib32/libdl.so
_fini                                             /usr/lib/gcc/x86_64-linux-gnu/4.8/../../../../lib32/crti.o
_flushlbf                                         /lib32/libc.so.6
_flushlbf@@GLIBC_2.2                              /lib32/libc.so.6
_flushlbf@GLIBC_2.2                               /lib32/libc.so.6
_fp_hw                                            /usr/lib/gcc/x86_64-linux-gnu/4.8/../../../../lib32/crt1.o
_gettimeofday                                     /home/evanosky/workspace/kubos-core/bin/native/cpu.a(syscalls.o)
_init                                             /usr/lib/gcc/x86_64-linux-gnu/4.8/../../../../lib32/crti.o
                                                  /usr/lib32/libc_nonshared.a(elf-init.oS)
_longjmp                                          /lib32/libc.so.6
_longjmp@@GLIBC_2.0                               /lib32/libc.so.6
_longjmp@GLIBC_2.0                                /lib32/libc.so.6
_native_LED_GREEN_OFF                             /home/evanosky/workspace/kubos-core/bin/native/native_base.a(native-led.o)
                                                  /home/evanosky/workspace/kubos-core/bin/native/native_base.a(board_init.o)
_native_LED_GREEN_ON                              /home/evanosky/workspace/kubos-core/bin/native/native_base.a(native-led.o)
_native_LED_GREEN_TOGGLE                          /home/evanosky/workspace/kubos-core/bin/native/native_base.a(native-led.o)
_native_LED_RED_OFF                               /home/evanosky/workspace/kubos-core/bin/native/native_base.a(native-led.o)
_native_LED_RED_ON                                /home/evanosky/workspace/kubos-core/bin/native/native_base.a(native-led.o)
                                                  /home/evanosky/workspace/kubos-core/bin/native/native_base.a(board_init.o)
_native_LED_RED_TOGGLE                            /home/evanosky/workspace/kubos-core/bin/native/native_base.a(native-led.o)
_native_argv                                      /home/evanosky/workspace/kubos-core/bin/native/cpu/startup.o
                                                  /home/evanosky/workspace/kubos-core/bin/native/cpu.a(native_cpu.o)
_native_cur_ctx                                   /home/evanosky/workspace/kubos-core/bin/native/cpu.a(irq_cpu.o)
                                                  /home/evanosky/workspace/kubos-core/bin/native/cpu.a(tramp.o)
                                                  /home/evanosky/workspace/kubos-core/bin/native/cpu.a(syscalls.o)
_native_handle_uart0_input                        /home/evanosky/workspace/kubos-core/bin/native/native_base.a(native-uart0.o)
                                                  /home/evanosky/workspace/kubos-core/bin/native/cpu.a(lpm_cpu.o)
_native_id                                        /home/evanosky/workspace/kubos-core/bin/native/cpu/startup.o
_native_in_calloc                                 /home/evanosky/workspace/kubos-core/bin/native/cpu.a(syscalls.o)
_native_in_isr                                    /home/evanosky/workspace/kubos-core/bin/native/cpu.a(irq_cpu.o)
                                                  /home/evanosky/workspace/kubos-core/bin/native/cpu.a(tramp.o)
                                                  /home/evanosky/workspace/kubos-core/bin/native/cpu.a(syscalls.o)
                                                  /home/evanosky/workspace/kubos-core/bin/native/cpu.a(native_cpu.o)
_native_in_syscall                                /home/evanosky/workspace/kubos-core/bin/native/cpu.a(irq_cpu.o)
                                                  /home/evanosky/workspace/kubos-core/bin/native/cpu.a(syscalls.o)
                                                  /home/evanosky/workspace/kubos-core/bin/native/cpu.a(lpm_cpu.o)
_native_init_syscalls                             /home/evanosky/workspace/kubos-core/bin/native/cpu.a(syscalls.o)
                                                  /home/evanosky/workspace/kubos-core/bin/native/cpu/startup.o
_native_init_uart0                                /home/evanosky/workspace/kubos-core/bin/native/native_base.a(native-uart0.o)
                                                  /home/evanosky/workspace/kubos-core/bin/native/cpu/startup.o
_native_isr_ctx                                   /home/evanosky/workspace/kubos-core/bin/native/cpu.a(irq_cpu.o)
                                                  /home/evanosky/workspace/kubos-core/bin/native/cpu.a(tramp.o)
_native_log_stderr                                /home/evanosky/workspace/kubos-core/bin/native/cpu/startup.o
_native_log_stdout                                /home/evanosky/workspace/kubos-core/bin/native/cpu/startup.o
_native_lpm_sleep                                 /home/evanosky/workspace/kubos-core/bin/native/cpu.a(lpm_cpu.o)
_native_null_in                                   /home/evanosky/workspace/kubos-core/bin/native/cpu/startup.o
_native_null_in_pipe                              /home/evanosky/workspace/kubos-core/bin/native/cpu/startup.o
                                                  /home/evanosky/workspace/kubos-core/bin/native/native_base.a(native-uart0.o)
_native_null_out_file                             /home/evanosky/workspace/kubos-core/bin/native/cpu/startup.o
                                                  /home/evanosky/workspace/kubos-core/bin/native/native_base.a(native-uart0.o)
_native_pid                                       /home/evanosky/workspace/kubos-core/bin/native/cpu/startup.o
                                                  /home/evanosky/workspace/kubos-core/bin/native/native_base.a(native-uart0.o)
_native_popsig                                    /home/evanosky/workspace/kubos-core/bin/native/cpu.a(irq_cpu.o)
_native_read                                      /home/evanosky/workspace/kubos-core/bin/native/cpu.a(syscalls.o)
                                                  /home/evanosky/workspace/kubos-core/bin/native/native_base.a(native-uart0.o)
_native_replay_buffer                             /home/evanosky/workspace/kubos-core/bin/native/native_base.a(native-uart0.o)
_native_replay_enabled                            /home/evanosky/workspace/kubos-core/bin/native/native_base.a(native-uart0.o)
_native_rfds                                      /home/evanosky/workspace/kubos-core/bin/native/cpu.a(native_cpu.o)
                                                  /home/evanosky/workspace/kubos-core/bin/native/native_base.a(native-uart0.o)
                                                  /home/evanosky/workspace/kubos-core/bin/native/cpu.a(lpm_cpu.o)
_native_rng_mode                                  /home/evanosky/workspace/kubos-core/bin/native/cpu/startup.o
_native_rng_seed                                  /home/evanosky/workspace/kubos-core/bin/native/cpu/startup.o
_native_saved_eip                                 /home/evanosky/workspace/kubos-core/bin/native/cpu.a(irq_cpu.o)
                                                  /home/evanosky/workspace/kubos-core/bin/native/cpu.a(tramp.o)
_native_set_uart_fds                              /home/evanosky/workspace/kubos-core/bin/native/native_base.a(native-uart0.o)
                                                  /home/evanosky/workspace/kubos-core/bin/native/cpu.a(lpm_cpu.o)
_native_sig_leave_tramp                           /home/evanosky/workspace/kubos-core/bin/native/cpu.a(tramp.o)
                                                  /home/evanosky/workspace/kubos-core/bin/native/cpu.a(irq_cpu.o)
_native_sigpend                                   /home/evanosky/workspace/kubos-core/bin/native/cpu.a(irq_cpu.o)
                                                  /home/evanosky/workspace/kubos-core/bin/native/cpu.a(syscalls.o)
                                                  /home/evanosky/workspace/kubos-core/bin/native/cpu.a(lpm_cpu.o)
_native_syscall_enter                             /home/evanosky/workspace/kubos-core/bin/native/cpu.a(syscalls.o)
                                                  /home/evanosky/workspace/kubos-core/bin/native/native_base.a(native-uart0.o)
                                                  /home/evanosky/workspace/kubos-core/bin/native/periph.a(timer.o)
                                                  /home/evanosky/workspace/kubos-core/bin/native/cpu.a(irq_cpu.o)
_native_syscall_leave                             /home/evanosky/workspace/kubos-core/bin/native/cpu.a(syscalls.o)
                                                  /home/evanosky/workspace/kubos-core/bin/native/native_base.a(native-uart0.o)
                                                  /home/evanosky/workspace/kubos-core/bin/native/periph.a(timer.o)
                                                  /home/evanosky/workspace/kubos-core/bin/native/cpu.a(lpm_cpu.o)
                                                  /home/evanosky/workspace/kubos-core/bin/native/cpu.a(irq_cpu.o)
_native_uart_conn                                 /home/evanosky/workspace/kubos-core/bin/native/native_base.a(native-uart0.o)
_native_uart_rfds                                 /home/evanosky/workspace/kubos-core/bin/native/native_base.a(native-uart0.o)
_native_uart_sock                                 /home/evanosky/workspace/kubos-core/bin/native/native_base.a(native-uart0.o)
_native_unix_socket_path                          /home/evanosky/workspace/kubos-core/bin/native/cpu/startup.o
                                                  /home/evanosky/workspace/kubos-core/bin/native/native_base.a(native-uart0.o)
_native_write                                     /home/evanosky/workspace/kubos-core/bin/native/cpu.a(syscalls.o)
                                                  /home/evanosky/workspace/kubos-core/bin/native/native_base.a(native-uart0.o)
_progname                                         /home/evanosky/workspace/kubos-core/bin/native/cpu/startup.o
                                                  /home/evanosky/workspace/kubos-core/bin/native/cpu.a(syscalls.o)
_sig_pipefd                                       /home/evanosky/workspace/kubos-core/bin/native/cpu.a(irq_cpu.o)
_start                                            /usr/lib/gcc/x86_64-linux-gnu/4.8/../../../../lib32/crt1.o
accept                                            /lib32/libc.so.6
accept4                                           /lib32/libc.so.6
accept4@@GLIBC_2.10                               /lib32/libc.so.6
accept4@GLIBC_2.10                                /lib32/libc.so.6
accept@@GLIBC_2.0                                 /lib32/libc.so.6
accept@GLIBC_2.0                                  /lib32/libc.so.6
access                                            /lib32/libc.so.6
access@@GLIBC_2.0                                 /lib32/libc.so.6
access@GLIBC_2.0                                  /lib32/libc.so.6
addmntent                                         /lib32/libc.so.6
addmntent@@GLIBC_2.0                              /lib32/libc.so.6
addmntent@GLIBC_2.0                               /lib32/libc.so.6
adjtime                                           /lib32/libc.so.6
adjtime@@GLIBC_2.0                                /lib32/libc.so.6
adjtime@GLIBC_2.0                                 /lib32/libc.so.6
adjtimex                                          /lib32/libc.so.6
adjtimex@@GLIBC_2.0                               /lib32/libc.so.6
adjtimex@GLIBC_2.0                                /lib32/libc.so.6
advance                                           /lib32/libc.so.6
advance@@GLIBC_2.0                                /lib32/libc.so.6
advance@GLIBC_2.0                                 /lib32/libc.so.6
aligned_alloc                                     /lib32/libc.so.6
aligned_alloc@@GLIBC_2.16                         /lib32/libc.so.6
aligned_alloc@GLIBC_2.16                          /lib32/libc.so.6
argp_error                                        /lib32/libc.so.6
argp_error@@GLIBC_2.1                             /lib32/libc.so.6
argp_error@GLIBC_2.1                              /lib32/libc.so.6
argp_failure                                      /lib32/libc.so.6
argp_failure@@GLIBC_2.1                           /lib32/libc.so.6
argp_failure@GLIBC_2.1                            /lib32/libc.so.6
argp_help                                         /lib32/libc.so.6
argp_help@@GLIBC_2.1                              /lib32/libc.so.6
argp_help@GLIBC_2.1                               /lib32/libc.so.6
argp_parse                                        /lib32/libc.so.6
argp_parse@@GLIBC_2.1                             /lib32/libc.so.6
argp_parse@GLIBC_2.1                              /lib32/libc.so.6
argp_state_help                                   /lib32/libc.so.6
argp_state_help@@GLIBC_2.1                        /lib32/libc.so.6
argp_state_help@GLIBC_2.1                         /lib32/libc.so.6
argp_usage                                        /lib32/libc.so.6
argp_usage@@GLIBC_2.1                             /lib32/libc.so.6
argp_usage@GLIBC_2.1                              /lib32/libc.so.6
argz_add                                          /lib32/libc.so.6
argz_add@@GLIBC_2.0                               /lib32/libc.so.6
argz_add@GLIBC_2.0                                /lib32/libc.so.6
argz_add_sep                                      /lib32/libc.so.6
argz_add_sep@@GLIBC_2.0                           /lib32/libc.so.6
argz_add_sep@GLIBC_2.0                            /lib32/libc.so.6
argz_append                                       /lib32/libc.so.6
argz_append@@GLIBC_2.0                            /lib32/libc.so.6
argz_append@GLIBC_2.0                             /lib32/libc.so.6
argz_count                                        /lib32/libc.so.6
argz_count@@GLIBC_2.0                             /lib32/libc.so.6
argz_count@GLIBC_2.0                              /lib32/libc.so.6
argz_create                                       /lib32/libc.so.6
argz_create@@GLIBC_2.0                            /lib32/libc.so.6
argz_create@GLIBC_2.0                             /lib32/libc.so.6
argz_create_sep                                   /lib32/libc.so.6
argz_create_sep@@GLIBC_2.0                        /lib32/libc.so.6
argz_create_sep@GLIBC_2.0                         /lib32/libc.so.6
argz_extract                                      /lib32/libc.so.6
argz_extract@@GLIBC_2.0                           /lib32/libc.so.6
argz_extract@GLIBC_2.0                            /lib32/libc.so.6
argz_insert                                       /lib32/libc.so.6
argz_insert@@GLIBC_2.0                            /lib32/libc.so.6
argz_insert@GLIBC_2.0                             /lib32/libc.so.6
argz_next                                         /lib32/libc.so.6
argz_next@@GLIBC_2.0                              /lib32/libc.so.6
argz_next@GLIBC_2.0                               /lib32/libc.so.6
argz_replace                                      /lib32/libc.so.6
argz_replace@@GLIBC_2.0                           /lib32/libc.so.6
argz_replace@GLIBC_2.0                            /lib32/libc.so.6
argz_stringify                                    /lib32/libc.so.6
argz_stringify@@GLIBC_2.0                         /lib32/libc.so.6
argz_stringify@GLIBC_2.0                          /lib32/libc.so.6
asctime_r                                         /lib32/libc.so.6
asctime_r@@GLIBC_2.0                              /lib32/libc.so.6
asctime_r@GLIBC_2.0                               /lib32/libc.so.6
asprintf                                          /lib32/libc.so.6
asprintf@@GLIBC_2.0                               /lib32/libc.so.6
asprintf@GLIBC_2.0                                /lib32/libc.so.6
atol                                              /lib32/libc.so.6
                                                  /home/evanosky/workspace/kubos-core/bin/native/cpu/startup.o
atol@@GLIBC_2.0                                   /lib32/libc.so.6
atol@GLIBC_2.0                                    /lib32/libc.so.6
atomic_cas                                        /home/evanosky/workspace/kubos-core/bin/native/core.a(atomic.o)
                                                  /home/evanosky/workspace/kubos-core/bin/native/core.a(mutex.o)
auto_init                                         /home/evanosky/workspace/kubos-core/bin/native/auto_init.a(auto_init.o)
                                                  /home/evanosky/workspace/kubos-core/bin/native/core.a(kernel_init.o)
backtrace                                         /lib32/libc.so.6
backtrace@@GLIBC_2.1                              /lib32/libc.so.6
backtrace@GLIBC_2.1                               /lib32/libc.so.6
backtrace_symbols                                 /lib32/libc.so.6
backtrace_symbols@@GLIBC_2.1                      /lib32/libc.so.6
backtrace_symbols@GLIBC_2.1                       /lib32/libc.so.6
backtrace_symbols_fd                              /lib32/libc.so.6
backtrace_symbols_fd@@GLIBC_2.1                   /lib32/libc.so.6
backtrace_symbols_fd@GLIBC_2.1                    /lib32/libc.so.6
bcmp                                              /lib32/libc.so.6
bcmp@@GLIBC_2.0                                   /lib32/libc.so.6
bcmp@GLIBC_2.0                                    /lib32/libc.so.6
bind_textdomain_codeset                           /lib32/libc.so.6
bind_textdomain_codeset@@GLIBC_2.2                /lib32/libc.so.6
bind_textdomain_codeset@GLIBC_2.2                 /lib32/libc.so.6
bindtextdomain                                    /lib32/libc.so.6
bindtextdomain@@GLIBC_2.0                         /lib32/libc.so.6
bindtextdomain@GLIBC_2.0                          /lib32/libc.so.6
bitarithm_bits_set                                /home/evanosky/workspace/kubos-core/bin/native/core.a(bitarithm.o)
bitarithm_lsb                                     /home/evanosky/workspace/kubos-core/bin/native/core.a(bitarithm.o)
                                                  /home/evanosky/workspace/kubos-core/bin/native/core.a(sched.o)
bitarithm_msb                                     /home/evanosky/workspace/kubos-core/bin/native/core.a(bitarithm.o)
board_init                                        /home/evanosky/workspace/kubos-core/bin/native/native_base.a(board_init.o)
                                                  /home/evanosky/workspace/kubos-core/bin/native/cpu/startup.o
board_uart0_init                                  /home/evanosky/workspace/kubos-core/bin/native/uart0.a(uart0.o)
                                                  /home/evanosky/workspace/kubos-core/bin/native/auto_init.a(auto_init.o)
brk                                               /lib32/libc.so.6
brk@@GLIBC_2.0                                    /lib32/libc.so.6
brk@GLIBC_2.0                                     /lib32/libc.so.6
bsd_signal                                        /lib32/libc.so.6
bsd_signal@@GLIBC_2.0                             /lib32/libc.so.6
bsd_signal@GLIBC_2.0                              /lib32/libc.so.6
btowc                                             /lib32/libc.so.6
btowc@@GLIBC_2.0                                  /lib32/libc.so.6
btowc@GLIBC_2.0                                   /lib32/libc.so.6
bzero                                             /lib32/libc.so.6
bzero@@GLIBC_2.0                                  /lib32/libc.so.6
bzero@GLIBC_2.0                                   /lib32/libc.so.6
c32rtomb                                          /lib32/libc.so.6
c32rtomb@@GLIBC_2.16                              /lib32/libc.so.6
c32rtomb@GLIBC_2.16                               /lib32/libc.so.6
calloc                                            /home/evanosky/workspace/kubos-core/bin/native/cpu.a(syscalls.o)
calloc@@GLIBC_2.0                                 /lib32/libc.so.6
                                                  /lib32/ld-linux.so.2
calloc@GLIBC_2.0                                  /lib32/libc.so.6
                                                  /usr/lib/gcc/x86_64-linux-gnu/4.8/../../../../lib32/libdl.so
canonicalize_file_name                            /lib32/libc.so.6
canonicalize_file_name@@GLIBC_2.0                 /lib32/libc.so.6
canonicalize_file_name@GLIBC_2.0                  /lib32/libc.so.6
cfree                                             /lib32/libc.so.6
cfree@@GLIBC_2.0                                  /lib32/libc.so.6
cfree@GLIBC_2.0                                   /lib32/libc.so.6
chardev_loop                                      /home/evanosky/workspace/kubos-core/bin/native/sys.a(chardev_thread.o)
chardev_thread_entry                              /home/evanosky/workspace/kubos-core/bin/native/sys.a(chardev_thread.o)
                                                  /home/evanosky/workspace/kubos-core/bin/native/uart0.a(uart0.o)
chdir                                             /lib32/libc.so.6
chdir@@GLIBC_2.0                                  /lib32/libc.so.6
chdir@GLIBC_2.0                                   /lib32/libc.so.6
chmod                                             /lib32/libc.so.6
chmod@@GLIBC_2.0                                  /lib32/libc.so.6
chmod@GLIBC_2.0                                   /lib32/libc.so.6
clearenv                                          /lib32/libc.so.6
clearenv@@GLIBC_2.0                               /lib32/libc.so.6
clearenv@GLIBC_2.0                                /lib32/libc.so.6
clist_add                                         /home/evanosky/workspace/kubos-core/bin/native/core.a(clist.o)
                                                  /home/evanosky/workspace/kubos-core/bin/native/core.a(sched.o)
clist_remove                                      /home/evanosky/workspace/kubos-core/bin/native/core.a(clist.o)
                                                  /home/evanosky/workspace/kubos-core/bin/native/core.a(sched.o)
clock_getcpuclockid                               /lib32/libc.so.6
clock_getcpuclockid@@GLIBC_2.17                   /lib32/libc.so.6
clock_getcpuclockid@GLIBC_2.17                    /lib32/libc.so.6
clock_getres                                      /lib32/libc.so.6
clock_getres@@GLIBC_2.17                          /lib32/libc.so.6
clock_getres@GLIBC_2.17                           /lib32/libc.so.6
clock_gettime                                     /lib32/libc.so.6
clock_gettime@@GLIBC_2.17                         /lib32/libc.so.6
clock_gettime@GLIBC_2.17                          /lib32/libc.so.6
clock_nanosleep                                   /lib32/libc.so.6
clock_nanosleep@@GLIBC_2.17                       /lib32/libc.so.6
clock_nanosleep@GLIBC_2.17                        /lib32/libc.so.6
clock_settime                                     /lib32/libc.so.6
clock_settime@@GLIBC_2.17                         /lib32/libc.so.6
clock_settime@GLIBC_2.17                          /lib32/libc.so.6
clone                                             /lib32/libc.so.6
clone@@GLIBC_2.0                                  /lib32/libc.so.6
clone@GLIBC_2.0                                   /lib32/libc.so.6
close                                             /lib32/libc.so.6
close@@GLIBC_2.0                                  /lib32/libc.so.6
close@GLIBC_2.0                                   /lib32/libc.so.6
closedir                                          /lib32/libc.so.6
closedir@@GLIBC_2.0                               /lib32/libc.so.6
closedir@GLIBC_2.0                                /lib32/libc.so.6
connect                                           /lib32/libc.so.6
connect@@GLIBC_2.0                                /lib32/libc.so.6
connect@GLIBC_2.0                                 /lib32/libc.so.6
copysign                                          /lib32/libc.so.6
copysign@@GLIBC_2.0                               /lib32/libc.so.6
copysign@GLIBC_2.0                                /lib32/libc.so.6
copysignf                                         /lib32/libc.so.6
copysignf@@GLIBC_2.0                              /lib32/libc.so.6
copysignf@GLIBC_2.0                               /lib32/libc.so.6
copysignl                                         /lib32/libc.so.6
copysignl@@GLIBC_2.0                              /lib32/libc.so.6
copysignl@GLIBC_2.0                               /lib32/libc.so.6
cpu_switch_context_exit                           /home/evanosky/workspace/kubos-core/bin/native/cpu.a(native_cpu.o)
                                                  /home/evanosky/workspace/kubos-core/bin/native/cpu.a(irq_cpu.o)
                                                  /home/evanosky/workspace/kubos-core/bin/native/core.a(sched.o)
                                                  /home/evanosky/workspace/kubos-core/bin/native/core.a(kernel_init.o)
creat                                             /lib32/libc.so.6
creat@@GLIBC_2.0                                  /lib32/libc.so.6
creat@GLIBC_2.0                                   /lib32/libc.so.6
dINT                                              /home/evanosky/workspace/kubos-core/bin/native/cpu.a(irq_cpu.o)
daemonize                                         /home/evanosky/workspace/kubos-core/bin/native/cpu/startup.o
data_start                                        /usr/lib/gcc/x86_64-linux-gnu/4.8/../../../../lib32/crt1.o
daylight                                          /lib32/libc.so.6
daylight@@GLIBC_2.0                               /lib32/libc.so.6
daylight@GLIBC_2.0                                /lib32/libc.so.6
dcgettext                                         /lib32/libc.so.6
dcgettext@@GLIBC_2.0                              /lib32/libc.so.6
dcgettext@GLIBC_2.0                               /lib32/libc.so.6
dcngettext                                        /lib32/libc.so.6
dcngettext@@GLIBC_2.2                             /lib32/libc.so.6
dcngettext@GLIBC_2.2                              /lib32/libc.so.6
dgettext                                          /lib32/libc.so.6
dgettext@@GLIBC_2.0                               /lib32/libc.so.6
dgettext@GLIBC_2.0                                /lib32/libc.so.6
disableIRQ                                        /home/evanosky/workspace/kubos-core/bin/native/cpu.a(irq_cpu.o)
                                                  /home/evanosky/workspace/kubos-core/bin/native/sys.a(chardev_thread.o)
                                                  /home/evanosky/workspace/kubos-core/bin/native/core.a(msg.o)
                                                  /home/evanosky/workspace/kubos-core/bin/native/vtimer.a(vtimer.o)
                                                  /home/evanosky/workspace/kubos-core/bin/native/cpu.a(syscalls.o)
                                                  /home/evanosky/workspace/kubos-core/bin/native/cpu.a(native_cpu.o)
                                                  /home/evanosky/workspace/kubos-core/bin/native/core.a(atomic.o)
                                                  /home/evanosky/workspace/kubos-core/bin/native/core.a(sched.o)
                                                  /home/evanosky/workspace/kubos-core/bin/native/core.a(mutex.o)
                                                  /home/evanosky/workspace/kubos-core/bin/native/core.a(hwtimer.o)
                                                  /home/evanosky/workspace/kubos-core/bin/native/core.a(thread.o)
                                                  /home/evanosky/workspace/kubos-core/bin/native/core.a(kernel_init.o)
dl_iterate_phdr                                   /lib32/libc.so.6
dl_iterate_phdr@@GLIBC_2.2.4                      /lib32/libc.so.6
dl_iterate_phdr@GLIBC_2.2.4                       /lib32/libc.so.6
dlsym                                             /usr/lib/gcc/x86_64-linux-gnu/4.8/../../../../lib32/libdl.so
                                                  /home/evanosky/workspace/kubos-core/bin/native/cpu.a(syscalls.o)
dlsym@@GLIBC_2.0                                  /usr/lib/gcc/x86_64-linux-gnu/4.8/../../../../lib32/libdl.so
dlsym@GLIBC_2.0                                   /usr/lib/gcc/x86_64-linux-gnu/4.8/../../../../lib32/libdl.so
dlvsym                                            /usr/lib/gcc/x86_64-linux-gnu/4.8/../../../../lib32/libdl.so
dlvsym@@GLIBC_2.1                                 /usr/lib/gcc/x86_64-linux-gnu/4.8/../../../../lib32/libdl.so
dlvsym@GLIBC_2.1                                  /usr/lib/gcc/x86_64-linux-gnu/4.8/../../../../lib32/libdl.so
dngettext                                         /lib32/libc.so.6
dngettext@@GLIBC_2.2                              /lib32/libc.so.6
dngettext@GLIBC_2.2                               /lib32/libc.so.6
dup                                               /lib32/libc.so.6
dup2                                              /lib32/libc.so.6
dup2@@GLIBC_2.0                                   /lib32/libc.so.6
dup2@GLIBC_2.0                                    /lib32/libc.so.6
dup3                                              /lib32/libc.so.6
dup3@@GLIBC_2.9                                   /lib32/libc.so.6
dup3@GLIBC_2.9                                    /lib32/libc.so.6
dup@@GLIBC_2.0                                    /lib32/libc.so.6
dup@GLIBC_2.0                                     /lib32/libc.so.6
duplocale                                         /lib32/libc.so.6
duplocale@@GLIBC_2.3                              /lib32/libc.so.6
duplocale@GLIBC_2.3                               /lib32/libc.so.6
eINT                                              /home/evanosky/workspace/kubos-core/bin/native/cpu.a(irq_cpu.o)
eaccess                                           /lib32/libc.so.6
eaccess@@GLIBC_2.4                                /lib32/libc.so.6
eaccess@GLIBC_2.4                                 /lib32/libc.so.6
enableIRQ                                         /home/evanosky/workspace/kubos-core/bin/native/cpu.a(irq_cpu.o)
                                                  /home/evanosky/workspace/kubos-core/bin/native/cpu.a(tramp.o)
                                                  /home/evanosky/workspace/kubos-core/bin/native/cpu.a(syscalls.o)
                                                  /home/evanosky/workspace/kubos-core/bin/native/cpu.a(native_cpu.o)
end_context                                       /home/evanosky/workspace/kubos-core/bin/native/cpu.a(native_cpu.o)
endmntent                                         /lib32/libc.so.6
endmntent@@GLIBC_2.0                              /lib32/libc.so.6
endmntent@GLIBC_2.0                               /lib32/libc.so.6
endutent                                          /lib32/libc.so.6
endutent@@GLIBC_2.0                               /lib32/libc.so.6
endutent@GLIBC_2.0                                /lib32/libc.so.6
environ                                           /lib32/libc.so.6
environ@@GLIBC_2.0                                /lib32/libc.so.6
environ@GLIBC_2.0                                 /lib32/libc.so.6
                                                  /usr/lib/gcc/x86_64-linux-gnu/4.8/../../../../lib32/libdl.so
erand48_r                                         /lib32/libc.so.6
erand48_r@@GLIBC_2.0                              /lib32/libc.so.6
erand48_r@GLIBC_2.0                               /lib32/libc.so.6
err                                               /home/evanosky/workspace/kubos-core/bin/native/cpu.a(syscalls.o)
                                                  /home/evanosky/workspace/kubos-core/bin/native/native_base.a(native-uart0.o)
                                                  /home/evanosky/workspace/kubos-core/bin/native/periph.a(timer.o)
                                                  /home/evanosky/workspace/kubos-core/bin/native/cpu.a(native_cpu.o)
                                                  /home/evanosky/workspace/kubos-core/bin/native/cpu.a(lpm_cpu.o)
                                                  /home/evanosky/workspace/kubos-core/bin/native/cpu.a(irq_cpu.o)
                                                  /home/evanosky/workspace/kubos-core/bin/native/cpu/startup.o
err@@GLIBC_2.0                                    /lib32/libc.so.6
err@GLIBC_2.0                                     /lib32/libc.so.6
error                                             /lib32/libc.so.6
error@@GLIBC_2.0                                  /lib32/libc.so.6
error@GLIBC_2.0                                   /lib32/libc.so.6
error_at_line                                     /lib32/libc.so.6
error_at_line@@GLIBC_2.0                          /lib32/libc.so.6
error_at_line@GLIBC_2.0                           /lib32/libc.so.6
errx                                              /home/evanosky/workspace/kubos-core/bin/native/cpu.a(syscalls.o)
                                                  /home/evanosky/workspace/kubos-core/bin/native/native_base.a(native-uart0.o)
                                                  /home/evanosky/workspace/kubos-core/bin/native/cpu.a(native_cpu.o)
                                                  /home/evanosky/workspace/kubos-core/bin/native/cpu.a(irq_cpu.o)
                                                  /home/evanosky/workspace/kubos-core/bin/native/cpu/startup.o
errx@@GLIBC_2.0                                   /lib32/libc.so.6
errx@GLIBC_2.0                                    /lib32/libc.so.6
euidaccess                                        /lib32/libc.so.6
euidaccess@@GLIBC_2.0                             /lib32/libc.so.6
euidaccess@GLIBC_2.0                              /lib32/libc.so.6
execve                                            /lib32/libc.so.6
execve@@GLIBC_2.0                                 /lib32/libc.so.6
execve@GLIBC_2.0                                  /lib32/libc.so.6
execvpe                                           /lib32/libc.so.6
execvpe@@GLIBC_2.11                               /lib32/libc.so.6
execvpe@GLIBC_2.11                                /lib32/libc.so.6
fchdir                                            /lib32/libc.so.6
fchdir@@GLIBC_2.0                                 /lib32/libc.so.6
fchdir@GLIBC_2.0                                  /lib32/libc.so.6
fchmod                                            /lib32/libc.so.6
fchmod@@GLIBC_2.0                                 /lib32/libc.so.6
fchmod@GLIBC_2.0                                  /lib32/libc.so.6
fchown                                            /lib32/libc.so.6
fchown@@GLIBC_2.0                                 /lib32/libc.so.6
fchown@GLIBC_2.0                                  /lib32/libc.so.6
fcloseall                                         /lib32/libc.so.6
fcloseall@@GLIBC_2.0                              /lib32/libc.so.6
fcloseall@GLIBC_2.0                               /lib32/libc.so.6
fcntl                                             /lib32/libc.so.6
fcntl@@GLIBC_2.0                                  /lib32/libc.so.6
fcntl@GLIBC_2.0                                   /lib32/libc.so.6
fdopendir                                         /lib32/libc.so.6
fdopendir@@GLIBC_2.4                              /lib32/libc.so.6
fdopendir@GLIBC_2.4                               /lib32/libc.so.6
feof                                              /lib32/libc.so.6
feof@@GLIBC_2.0                                   /lib32/libc.so.6
feof@GLIBC_2.0                                    /lib32/libc.so.6
ferror                                            /lib32/libc.so.6
ferror@@GLIBC_2.0                                 /lib32/libc.so.6
ferror@GLIBC_2.0                                  /lib32/libc.so.6
fflush                                            /lib32/libc.so.6
fflush@@GLIBC_2.0                                 /lib32/libc.so.6
fflush@GLIBC_2.0                                  /lib32/libc.so.6
ffsl                                              /lib32/libc.so.6
ffsl@@GLIBC_2.1                                   /lib32/libc.so.6
ffsl@GLIBC_2.1                                    /lib32/libc.so.6
fgetc                                             /lib32/libc.so.6
fgetc@@GLIBC_2.0                                  /lib32/libc.so.6
fgetc@GLIBC_2.0                                   /lib32/libc.so.6
fgetc_unlocked                                    /lib32/libc.so.6
fgetc_unlocked@@GLIBC_2.1                         /lib32/libc.so.6
fgetc_unlocked@GLIBC_2.1                          /lib32/libc.so.6
fgetgrent_r                                       /lib32/libc.so.6
fgetgrent_r@@GLIBC_2.0                            /lib32/libc.so.6
fgetgrent_r@GLIBC_2.0                             /lib32/libc.so.6
fgetpwent_r                                       /lib32/libc.so.6
fgetpwent_r@@GLIBC_2.0                            /lib32/libc.so.6
fgetpwent_r@GLIBC_2.0                             /lib32/libc.so.6
fgets                                             /lib32/libc.so.6
fgets@@GLIBC_2.0                                  /lib32/libc.so.6
fgets@GLIBC_2.0                                   /lib32/libc.so.6
fgetsgent_r                                       /lib32/libc.so.6
fgetsgent_r@@GLIBC_2.10                           /lib32/libc.so.6
fgetsgent_r@GLIBC_2.10                            /lib32/libc.so.6
fgetspent_r                                       /lib32/libc.so.6
fgetspent_r@@GLIBC_2.0                            /lib32/libc.so.6
fgetspent_r@GLIBC_2.0                             /lib32/libc.so.6
fgetwc                                            /lib32/libc.so.6
fgetwc@@GLIBC_2.2                                 /lib32/libc.so.6
fgetwc@GLIBC_2.2                                  /lib32/libc.so.6
fgetwc_unlocked                                   /lib32/libc.so.6
fgetwc_unlocked@@GLIBC_2.2                        /lib32/libc.so.6
fgetwc_unlocked@GLIBC_2.2                         /lib32/libc.so.6
fileno_unlocked                                   /lib32/libc.so.6
fileno_unlocked@@GLIBC_2.0                        /lib32/libc.so.6
fileno_unlocked@GLIBC_2.0                         /lib32/libc.so.6
finite                                            /lib32/libc.so.6
finite@@GLIBC_2.0                                 /lib32/libc.so.6
finite@GLIBC_2.0                                  /lib32/libc.so.6
finitef                                           /lib32/libc.so.6
finitef@@GLIBC_2.0                                /lib32/libc.so.6
finitef@GLIBC_2.0                                 /lib32/libc.so.6
finitel                                           /lib32/libc.so.6
finitel@@GLIBC_2.0                                /lib32/libc.so.6
finitel@GLIBC_2.0                                 /lib32/libc.so.6
flock                                             /lib32/libc.so.6
flock@@GLIBC_2.0                                  /lib32/libc.so.6
flock@GLIBC_2.0                                   /lib32/libc.so.6
flockfile                                         /lib32/libc.so.6
flockfile@@GLIBC_2.0                              /lib32/libc.so.6
flockfile@GLIBC_2.0                               /lib32/libc.so.6
fopen64                                           /lib32/libc.so.6
fopen64@@GLIBC_2.1                                /lib32/libc.so.6
fopen64@GLIBC_2.1                                 /lib32/libc.so.6
fork                                              /lib32/libc.so.6
fork@@GLIBC_2.0                                   /lib32/libc.so.6
fork@GLIBC_2.0                                    /lib32/libc.so.6
fpathconf                                         /lib32/libc.so.6
fpathconf@@GLIBC_2.0                              /lib32/libc.so.6
fpathconf@GLIBC_2.0                               /lib32/libc.so.6
fputs                                             /lib32/libc.so.6
fputs@@GLIBC_2.0                                  /lib32/libc.so.6
fputs@GLIBC_2.0                                   /lib32/libc.so.6
fread                                             /lib32/libc.so.6
fread@@GLIBC_2.0                                  /lib32/libc.so.6
fread@GLIBC_2.0                                   /lib32/libc.so.6
free                                              /home/evanosky/workspace/kubos-core/bin/native/cpu.a(syscalls.o)
free@@GLIBC_2.0                                   /lib32/libc.so.6
                                                  /lib32/ld-linux.so.2
free@GLIBC_2.0                                    /lib32/libc.so.6
                                                  /usr/lib/gcc/x86_64-linux-gnu/4.8/../../../../lib32/libdl.so
freelocale                                        /lib32/libc.so.6
freelocale@@GLIBC_2.3                             /lib32/libc.so.6
freelocale@GLIBC_2.3                              /lib32/libc.so.6
frexp                                             /lib32/libc.so.6
frexp@@GLIBC_2.0                                  /lib32/libc.so.6
frexp@GLIBC_2.0                                   /lib32/libc.so.6
frexpf                                            /lib32/libc.so.6
frexpf@@GLIBC_2.0                                 /lib32/libc.so.6
frexpf@GLIBC_2.0                                  /lib32/libc.so.6
frexpl                                            /lib32/libc.so.6
frexpl@@GLIBC_2.0                                 /lib32/libc.so.6
frexpl@GLIBC_2.0                                  /lib32/libc.so.6
fstatfs                                           /lib32/libc.so.6
fstatfs64                                         /lib32/libc.so.6
fstatfs64@@GLIBC_2.1                              /lib32/libc.so.6
fstatfs64@GLIBC_2.1                               /lib32/libc.so.6
fstatfs@@GLIBC_2.0                                /lib32/libc.so.6
fstatfs@GLIBC_2.0                                 /lib32/libc.so.6
fstatvfs64                                        /lib32/libc.so.6
fstatvfs64@@GLIBC_2.1                             /lib32/libc.so.6
fstatvfs64@GLIBC_2.1                              /lib32/libc.so.6
fsync                                             /lib32/libc.so.6
fsync@@GLIBC_2.0                                  /lib32/libc.so.6
fsync@GLIBC_2.0                                   /lib32/libc.so.6
ftell                                             /lib32/libc.so.6
ftell@@GLIBC_2.0                                  /lib32/libc.so.6
ftell@GLIBC_2.0                                   /lib32/libc.so.6
ftruncate                                         /lib32/libc.so.6
ftruncate64                                       /lib32/libc.so.6
ftruncate64@@GLIBC_2.1                            /lib32/libc.so.6
ftruncate64@GLIBC_2.1                             /lib32/libc.so.6
ftruncate@@GLIBC_2.0                              /lib32/libc.so.6
ftruncate@GLIBC_2.0                               /lib32/libc.so.6
ftrylockfile                                      /lib32/libc.so.6
ftrylockfile@@GLIBC_2.0                           /lib32/libc.so.6
ftrylockfile@GLIBC_2.0                            /lib32/libc.so.6
funlockfile                                       /lib32/libc.so.6
funlockfile@@GLIBC_2.0                            /lib32/libc.so.6
funlockfile@GLIBC_2.0                             /lib32/libc.so.6
futimes                                           /lib32/libc.so.6
futimes@@GLIBC_2.3                                /lib32/libc.so.6
futimes@GLIBC_2.3                                 /lib32/libc.so.6
fwprintf                                          /lib32/libc.so.6
fwprintf@@GLIBC_2.2                               /lib32/libc.so.6
fwprintf@GLIBC_2.2                                /lib32/libc.so.6
fwrite                                            /lib32/libc.so.6
fwrite@@GLIBC_2.0                                 /lib32/libc.so.6
fwrite@GLIBC_2.0                                  /lib32/libc.so.6
get_avphys_pages                                  /lib32/libc.so.6
get_avphys_pages@@GLIBC_2.0                       /lib32/libc.so.6
get_avphys_pages@GLIBC_2.0                        /lib32/libc.so.6
get_in_addr                                       /home/evanosky/workspace/kubos-core/bin/native/native_base.a(native-uart0.o)
get_nprocs                                        /lib32/libc.so.6
get_nprocs@@GLIBC_2.0                             /lib32/libc.so.6
get_nprocs@GLIBC_2.0                              /lib32/libc.so.6
get_nprocs_conf                                   /lib32/libc.so.6
get_nprocs_conf@@GLIBC_2.0                        /lib32/libc.so.6
get_nprocs_conf@GLIBC_2.0                         /lib32/libc.so.6
get_phys_pages                                    /lib32/libc.so.6
get_phys_pages@@GLIBC_2.0                         /lib32/libc.so.6
get_phys_pages@GLIBC_2.0                          /lib32/libc.so.6
getauxval                                         /lib32/libc.so.6
getauxval@@GLIBC_2.16                             /lib32/libc.so.6
getauxval@GLIBC_2.16                              /lib32/libc.so.6
getc                                              /lib32/libc.so.6
getc@@GLIBC_2.0                                   /lib32/libc.so.6
getc@GLIBC_2.0                                    /lib32/libc.so.6
getc_unlocked                                     /lib32/libc.so.6
getc_unlocked@@GLIBC_2.0                          /lib32/libc.so.6
getc_unlocked@GLIBC_2.0                           /lib32/libc.so.6
getcontext                                        /lib32/libc.so.6
                                                  /home/evanosky/workspace/kubos-core/bin/native/cpu.a(native_cpu.o)
                                                  /home/evanosky/workspace/kubos-core/bin/native/cpu.a(irq_cpu.o)
getcontext@@GLIBC_2.1                             /lib32/libc.so.6
getcontext@GLIBC_2.1                              /lib32/libc.so.6
getcwd                                            /lib32/libc.so.6
getcwd@@GLIBC_2.0                                 /lib32/libc.so.6
getcwd@GLIBC_2.0                                  /lib32/libc.so.6
getdate_r                                         /lib32/libc.so.6
getdate_r@@GLIBC_2.1                              /lib32/libc.so.6
getdate_r@GLIBC_2.1                               /lib32/libc.so.6
getdelim                                          /lib32/libc.so.6
getdelim@@GLIBC_2.0                               /lib32/libc.so.6
getdelim@GLIBC_2.0                                /lib32/libc.so.6
getdtablesize                                     /lib32/libc.so.6
getdtablesize@@GLIBC_2.0                          /lib32/libc.so.6
getdtablesize@GLIBC_2.0                           /lib32/libc.so.6
getegid                                           /lib32/libc.so.6
getegid@@GLIBC_2.0                                /lib32/libc.so.6
getegid@GLIBC_2.0                                 /lib32/libc.so.6
geteuid                                           /lib32/libc.so.6
geteuid@@GLIBC_2.0                                /lib32/libc.so.6
geteuid@GLIBC_2.0                                 /lib32/libc.so.6
getgid                                            /lib32/libc.so.6
getgid@@GLIBC_2.0                                 /lib32/libc.so.6
getgid@GLIBC_2.0                                  /lib32/libc.so.6
getgroups                                         /lib32/libc.so.6
getgroups@@GLIBC_2.0                              /lib32/libc.so.6
getgroups@GLIBC_2.0                               /lib32/libc.so.6
gethostname                                       /lib32/libc.so.6
gethostname@@GLIBC_2.0                            /lib32/libc.so.6
gethostname@GLIBC_2.0                             /lib32/libc.so.6
getitimer                                         /lib32/libc.so.6
getitimer@@GLIBC_2.0                              /lib32/libc.so.6
getitimer@GLIBC_2.0                               /lib32/libc.so.6
getline                                           /lib32/libc.so.6
getline@@GLIBC_2.0                                /lib32/libc.so.6
getline@GLIBC_2.0                                 /lib32/libc.so.6
getmntent_r                                       /lib32/libc.so.6
getmntent_r@@GLIBC_2.0                            /lib32/libc.so.6
getmntent_r@GLIBC_2.0                             /lib32/libc.so.6
getnetgrent_r                                     /lib32/libc.so.6
getnetgrent_r@@GLIBC_2.0                          /lib32/libc.so.6
getnetgrent_r@GLIBC_2.0                           /lib32/libc.so.6
getpagesize                                       /lib32/libc.so.6
getpagesize@@GLIBC_2.0                            /lib32/libc.so.6
getpagesize@GLIBC_2.0                             /lib32/libc.so.6
getpeername                                       /lib32/libc.so.6
getpeername@@GLIBC_2.0                            /lib32/libc.so.6
getpeername@GLIBC_2.0                             /lib32/libc.so.6
getpgid                                           /lib32/libc.so.6
getpgid@@GLIBC_2.0                                /lib32/libc.so.6
getpgid@GLIBC_2.0                                 /lib32/libc.so.6
getpid                                            /home/evanosky/workspace/kubos-core/bin/native/cpu.a(syscalls.o)
getpid@@GLIBC_2.0                                 /lib32/libc.so.6
getpid@GLIBC_2.0                                  /lib32/libc.so.6
getppid                                           /lib32/libc.so.6
getppid@@GLIBC_2.0                                /lib32/libc.so.6
getppid@GLIBC_2.0                                 /lib32/libc.so.6
getpt                                             /lib32/libc.so.6
getpt@@GLIBC_2.1                                  /lib32/libc.so.6
getpt@GLIBC_2.1                                   /lib32/libc.so.6
getpw                                             /lib32/libc.so.6
getpw@@GLIBC_2.0                                  /lib32/libc.so.6
getpw@GLIBC_2.0                                   /lib32/libc.so.6
getresgid                                         /lib32/libc.so.6
getresgid@@GLIBC_2.0                              /lib32/libc.so.6
getresgid@GLIBC_2.0                               /lib32/libc.so.6
getresuid                                         /lib32/libc.so.6
getresuid@@GLIBC_2.0                              /lib32/libc.so.6
getresuid@GLIBC_2.0                               /lib32/libc.so.6
getrusage                                         /lib32/libc.so.6
getrusage@@GLIBC_2.0                              /lib32/libc.so.6
getrusage@GLIBC_2.0                               /lib32/libc.so.6
gets                                              /lib32/libc.so.6
gets@@GLIBC_2.0                                   /lib32/libc.so.6
gets@GLIBC_2.0                                    /lib32/libc.so.6
getsockopt                                        /lib32/libc.so.6
getsockopt@@GLIBC_2.0                             /lib32/libc.so.6
getsockopt@GLIBC_2.0                              /lib32/libc.so.6
gettext                                           /lib32/libc.so.6
gettext@@GLIBC_2.0                                /lib32/libc.so.6
gettext@GLIBC_2.0                                 /lib32/libc.so.6
gettimeofday                                      /lib32/libc.so.6
gettimeofday@@GLIBC_2.0                           /lib32/libc.so.6
gettimeofday@GLIBC_2.0                            /lib32/libc.so.6
getuid                                            /lib32/libc.so.6
getuid@@GLIBC_2.0                                 /lib32/libc.so.6
getuid@GLIBC_2.0                                  /lib32/libc.so.6
getutent                                          /lib32/libc.so.6
getutent@@GLIBC_2.0                               /lib32/libc.so.6
getutent@GLIBC_2.0                                /lib32/libc.so.6
getutent_r                                        /lib32/libc.so.6
getutent_r@@GLIBC_2.0                             /lib32/libc.so.6
getutent_r@GLIBC_2.0                              /lib32/libc.so.6
getutid                                           /lib32/libc.so.6
getutid@@GLIBC_2.0                                /lib32/libc.so.6
getutid@GLIBC_2.0                                 /lib32/libc.so.6
getutid_r                                         /lib32/libc.so.6
getutid_r@@GLIBC_2.0                              /lib32/libc.so.6
getutid_r@GLIBC_2.0                               /lib32/libc.so.6
getutline                                         /lib32/libc.so.6
getutline@@GLIBC_2.0                              /lib32/libc.so.6
getutline@GLIBC_2.0                               /lib32/libc.so.6
getutline_r                                       /lib32/libc.so.6
getutline_r@@GLIBC_2.0                            /lib32/libc.so.6
getutline_r@GLIBC_2.0                             /lib32/libc.so.6
getwc                                             /lib32/libc.so.6
getwc@@GLIBC_2.2                                  /lib32/libc.so.6
getwc@GLIBC_2.2                                   /lib32/libc.so.6
getwc_unlocked                                    /lib32/libc.so.6
getwc_unlocked@@GLIBC_2.2                         /lib32/libc.so.6
getwc_unlocked@GLIBC_2.2                          /lib32/libc.so.6
glob_pattern_p                                    /lib32/libc.so.6
glob_pattern_p@@GLIBC_2.0                         /lib32/libc.so.6
glob_pattern_p@GLIBC_2.0                          /lib32/libc.so.6
gmtime_r                                          /lib32/libc.so.6
gmtime_r@@GLIBC_2.0                               /lib32/libc.so.6
gmtime_r@GLIBC_2.0                                /lib32/libc.so.6
gnu_get_libc_release                              /lib32/libc.so.6
gnu_get_libc_release@@GLIBC_2.1                   /lib32/libc.so.6
gnu_get_libc_release@GLIBC_2.1                    /lib32/libc.so.6
gnu_get_libc_version                              /lib32/libc.so.6
gnu_get_libc_version@@GLIBC_2.1                   /lib32/libc.so.6
gnu_get_libc_version@GLIBC_2.1                    /lib32/libc.so.6
group_member                                      /lib32/libc.so.6
group_member@@GLIBC_2.0                           /lib32/libc.so.6
group_member@GLIBC_2.0                            /lib32/libc.so.6
gsignal                                           /lib32/libc.so.6
gsignal@@GLIBC_2.0                                /lib32/libc.so.6
gsignal@GLIBC_2.0                                 /lib32/libc.so.6
handle_uart_in                                    /home/evanosky/workspace/kubos-core/bin/native/native_base.a(native-uart0.o)
handle_uart_sock                                  /home/evanosky/workspace/kubos-core/bin/native/native_base.a(native-uart0.o)
hasmntopt                                         /lib32/libc.so.6
hasmntopt@@GLIBC_2.0                              /lib32/libc.so.6
hasmntopt@GLIBC_2.0                               /lib32/libc.so.6
hdestroy                                          /lib32/libc.so.6
hdestroy@@GLIBC_2.0                               /lib32/libc.so.6
hdestroy@GLIBC_2.0                                /lib32/libc.so.6
hello_world                                       /home/evanosky/workspace/kubos-core/bin/native/kubos-core.a(main.o)
hwtimer_active                                    /home/evanosky/workspace/kubos-core/bin/native/core.a(hwtimer.o)
hwtimer_arch_disable_interrupt                    /home/evanosky/workspace/kubos-core/bin/native/hwtimer_compat.a(hwtimer_arch.o)
hwtimer_arch_enable_interrupt                     /home/evanosky/workspace/kubos-core/bin/native/hwtimer_compat.a(hwtimer_arch.o)
hwtimer_arch_init                                 /home/evanosky/workspace/kubos-core/bin/native/hwtimer_compat.a(hwtimer_arch.o)
                                                  /home/evanosky/workspace/kubos-core/bin/native/core.a(hwtimer.o)
hwtimer_arch_now                                  /home/evanosky/workspace/kubos-core/bin/native/hwtimer_compat.a(hwtimer_arch.o)
                                                  /home/evanosky/workspace/kubos-core/bin/native/core.a(hwtimer.o)
hwtimer_arch_set                                  /home/evanosky/workspace/kubos-core/bin/native/hwtimer_compat.a(hwtimer_arch.o)
                                                  /home/evanosky/workspace/kubos-core/bin/native/core.a(hwtimer.o)
hwtimer_arch_set_absolute                         /home/evanosky/workspace/kubos-core/bin/native/hwtimer_compat.a(hwtimer_arch.o)
                                                  /home/evanosky/workspace/kubos-core/bin/native/core.a(hwtimer.o)
hwtimer_arch_unset                                /home/evanosky/workspace/kubos-core/bin/native/hwtimer_compat.a(hwtimer_arch.o)
                                                  /home/evanosky/workspace/kubos-core/bin/native/core.a(hwtimer.o)
hwtimer_init                                      /home/evanosky/workspace/kubos-core/bin/native/core.a(hwtimer.o)
                                                  /home/evanosky/workspace/kubos-core/bin/native/core.a(kernel_init.o)
hwtimer_init_comp                                 /home/evanosky/workspace/kubos-core/bin/native/core.a(hwtimer.o)
hwtimer_now                                       /home/evanosky/workspace/kubos-core/bin/native/core.a(hwtimer.o)
                                                  /home/evanosky/workspace/kubos-core/bin/native/vtimer.a(vtimer.o)
hwtimer_remove                                    /home/evanosky/workspace/kubos-core/bin/native/core.a(hwtimer.o)
                                                  /home/evanosky/workspace/kubos-core/bin/native/vtimer.a(vtimer.o)
hwtimer_set                                       /home/evanosky/workspace/kubos-core/bin/native/core.a(hwtimer.o)
                                                  /home/evanosky/workspace/kubos-core/bin/native/vtimer.a(vtimer.o)
hwtimer_set_absolute                              /home/evanosky/workspace/kubos-core/bin/native/core.a(hwtimer.o)
hwtimer_spin                                      /home/evanosky/workspace/kubos-core/bin/native/core.a(hwtimer.o)
                                                  /home/evanosky/workspace/kubos-core/bin/native/vtimer.a(vtimer.o)
hwtimer_wait                                      /home/evanosky/workspace/kubos-core/bin/native/core.a(hwtimer.o)
idle_name                                         /home/evanosky/workspace/kubos-core/bin/native/core.a(kernel_init.o)
imaxabs                                           /lib32/libc.so.6
imaxabs@@GLIBC_2.1.1                              /lib32/libc.so.6
imaxabs@GLIBC_2.1.1                               /lib32/libc.so.6
imaxdiv                                           /lib32/libc.so.6
imaxdiv@@GLIBC_2.1.1                              /lib32/libc.so.6
imaxdiv@GLIBC_2.1.1                               /lib32/libc.so.6
inISR                                             /home/evanosky/workspace/kubos-core/bin/native/cpu.a(irq_cpu.o)
                                                  /home/evanosky/workspace/kubos-core/bin/native/core.a(msg.o)
                                                  /home/evanosky/workspace/kubos-core/bin/native/core.a(sched.o)
                                                  /home/evanosky/workspace/kubos-core/bin/native/core.a(hwtimer.o)
                                                  /home/evanosky/workspace/kubos-core/bin/native/core.a(thread.o)
index                                             /lib32/libc.so.6
index@@GLIBC_2.0                                  /lib32/libc.so.6
index@GLIBC_2.0                                   /lib32/libc.so.6
inet_aton                                         /lib32/libc.so.6
inet_aton@@GLIBC_2.0                              /lib32/libc.so.6
inet_aton@GLIBC_2.0                               /lib32/libc.so.6
init_tcp_socket                                   /home/evanosky/workspace/kubos-core/bin/native/native_base.a(native-uart0.o)
init_unix_socket                                  /home/evanosky/workspace/kubos-core/bin/native/native_base.a(native-uart0.o)
initstate                                         /lib32/libc.so.6
initstate@@GLIBC_2.0                              /lib32/libc.so.6
initstate@GLIBC_2.0                               /lib32/libc.so.6
initstate_r                                       /lib32/libc.so.6
initstate_r@@GLIBC_2.0                            /lib32/libc.so.6
initstate_r@GLIBC_2.0                             /lib32/libc.so.6
ioctl                                             /lib32/libc.so.6
ioctl@@GLIBC_2.0                                  /lib32/libc.so.6
ioctl@GLIBC_2.0                                   /lib32/libc.so.6
irq_handler                                       /home/evanosky/workspace/kubos-core/bin/native/hwtimer_compat.a(hwtimer_arch.o)
isalnum_l                                         /lib32/libc.so.6
isalnum_l@@GLIBC_2.3                              /lib32/libc.so.6
isalnum_l@GLIBC_2.3                               /lib32/libc.so.6
isalpha_l                                         /lib32/libc.so.6
isalpha_l@@GLIBC_2.3                              /lib32/libc.so.6
isalpha_l@GLIBC_2.3                               /lib32/libc.so.6
isatty                                            /lib32/libc.so.6
isatty@@GLIBC_2.0                                 /lib32/libc.so.6
isatty@GLIBC_2.0                                  /lib32/libc.so.6
isblank_l                                         /lib32/libc.so.6
isblank_l@@GLIBC_2.3                              /lib32/libc.so.6
isblank_l@GLIBC_2.3                               /lib32/libc.so.6
iscntrl_l                                         /lib32/libc.so.6
iscntrl_l@@GLIBC_2.3                              /lib32/libc.so.6
iscntrl_l@GLIBC_2.3                               /lib32/libc.so.6
isctype                                           /lib32/libc.so.6
isctype@@GLIBC_2.3                                /lib32/libc.so.6
isctype@GLIBC_2.3                                 /lib32/libc.so.6
isdigit_l                                         /lib32/libc.so.6
isdigit_l@@GLIBC_2.3                              /lib32/libc.so.6
isdigit_l@GLIBC_2.3                               /lib32/libc.so.6
isgraph_l                                         /lib32/libc.so.6
isgraph_l@@GLIBC_2.3                              /lib32/libc.so.6
isgraph_l@GLIBC_2.3                               /lib32/libc.so.6
isinf                                             /lib32/libc.so.6
isinf@@GLIBC_2.0                                  /lib32/libc.so.6
isinf@GLIBC_2.0                                   /lib32/libc.so.6
isinff                                            /lib32/libc.so.6
isinff@@GLIBC_2.0                                 /lib32/libc.so.6
isinff@GLIBC_2.0                                  /lib32/libc.so.6
isinfl                                            /lib32/libc.so.6
isinfl@@GLIBC_2.0                                 /lib32/libc.so.6
isinfl@GLIBC_2.0                                  /lib32/libc.so.6
islower_l                                         /lib32/libc.so.6
islower_l@@GLIBC_2.3                              /lib32/libc.so.6
islower_l@GLIBC_2.3                               /lib32/libc.so.6
isnan                                             /lib32/libc.so.6
isnan@@GLIBC_2.0                                  /lib32/libc.so.6
isnan@GLIBC_2.0                                   /lib32/libc.so.6
isnanf                                            /lib32/libc.so.6
isnanf@@GLIBC_2.0                                 /lib32/libc.so.6
isnanf@GLIBC_2.0                                  /lib32/libc.so.6
isnanl                                            /lib32/libc.so.6
isnanl@@GLIBC_2.0                                 /lib32/libc.so.6
isnanl@GLIBC_2.0                                  /lib32/libc.so.6
isprint_l                                         /lib32/libc.so.6
isprint_l@@GLIBC_2.3                              /lib32/libc.so.6
isprint_l@GLIBC_2.3                               /lib32/libc.so.6
ispunct_l                                         /lib32/libc.so.6
ispunct_l@@GLIBC_2.3                              /lib32/libc.so.6
ispunct_l@GLIBC_2.3                               /lib32/libc.so.6
isr_cpu_switch_context_exit                       /home/evanosky/workspace/kubos-core/bin/native/cpu.a(native_cpu.o)
isr_set_sigmask                                   /home/evanosky/workspace/kubos-core/bin/native/cpu.a(irq_cpu.o)
isr_thread_yield                                  /home/evanosky/workspace/kubos-core/bin/native/cpu.a(native_cpu.o)
isspace_l                                         /lib32/libc.so.6
isspace_l@@GLIBC_2.3                              /lib32/libc.so.6
isspace_l@GLIBC_2.3                               /lib32/libc.so.6
isupper_l                                         /lib32/libc.so.6
isupper_l@@GLIBC_2.3                              /lib32/libc.so.6
isupper_l@GLIBC_2.3                               /lib32/libc.so.6
iswalnum                                          /lib32/libc.so.6
iswalnum@@GLIBC_2.0                               /lib32/libc.so.6
iswalnum@GLIBC_2.0                                /lib32/libc.so.6
iswalnum_l                                        /lib32/libc.so.6
iswalnum_l@@GLIBC_2.3                             /lib32/libc.so.6
iswalnum_l@GLIBC_2.3                              /lib32/libc.so.6
iswalpha                                          /lib32/libc.so.6
iswalpha@@GLIBC_2.0                               /lib32/libc.so.6
iswalpha@GLIBC_2.0                                /lib32/libc.so.6
iswalpha_l                                        /lib32/libc.so.6
iswalpha_l@@GLIBC_2.3                             /lib32/libc.so.6
iswalpha_l@GLIBC_2.3                              /lib32/libc.so.6
iswblank                                          /lib32/libc.so.6
iswblank@@GLIBC_2.1                               /lib32/libc.so.6
iswblank@GLIBC_2.1                                /lib32/libc.so.6
iswblank_l                                        /lib32/libc.so.6
iswblank_l@@GLIBC_2.3                             /lib32/libc.so.6
iswblank_l@GLIBC_2.3                              /lib32/libc.so.6
iswcntrl                                          /lib32/libc.so.6
iswcntrl@@GLIBC_2.0                               /lib32/libc.so.6
iswcntrl@GLIBC_2.0                                /lib32/libc.so.6
iswcntrl_l                                        /lib32/libc.so.6
iswcntrl_l@@GLIBC_2.3                             /lib32/libc.so.6
iswcntrl_l@GLIBC_2.3                              /lib32/libc.so.6
iswctype                                          /lib32/libc.so.6
iswctype@@GLIBC_2.0                               /lib32/libc.so.6
iswctype@GLIBC_2.0                                /lib32/libc.so.6
iswctype_l                                        /lib32/libc.so.6
iswctype_l@@GLIBC_2.3                             /lib32/libc.so.6
iswctype_l@GLIBC_2.3                              /lib32/libc.so.6
iswdigit                                          /lib32/libc.so.6
iswdigit@@GLIBC_2.0                               /lib32/libc.so.6
iswdigit@GLIBC_2.0                                /lib32/libc.so.6
iswdigit_l                                        /lib32/libc.so.6
iswdigit_l@@GLIBC_2.3                             /lib32/libc.so.6
iswdigit_l@GLIBC_2.3                              /lib32/libc.so.6
iswgraph                                          /lib32/libc.so.6
iswgraph@@GLIBC_2.0                               /lib32/libc.so.6
iswgraph@GLIBC_2.0                                /lib32/libc.so.6
iswgraph_l                                        /lib32/libc.so.6
iswgraph_l@@GLIBC_2.3                             /lib32/libc.so.6
iswgraph_l@GLIBC_2.3                              /lib32/libc.so.6
iswlower                                          /lib32/libc.so.6
iswlower@@GLIBC_2.0                               /lib32/libc.so.6
iswlower@GLIBC_2.0                                /lib32/libc.so.6
iswlower_l                                        /lib32/libc.so.6
iswlower_l@@GLIBC_2.3                             /lib32/libc.so.6
iswlower_l@GLIBC_2.3                              /lib32/libc.so.6
iswprint                                          /lib32/libc.so.6
iswprint@@GLIBC_2.0                               /lib32/libc.so.6
iswprint@GLIBC_2.0                                /lib32/libc.so.6
iswprint_l                                        /lib32/libc.so.6
iswprint_l@@GLIBC_2.3                             /lib32/libc.so.6
iswprint_l@GLIBC_2.3                              /lib32/libc.so.6
iswpunct                                          /lib32/libc.so.6
iswpunct@@GLIBC_2.0                               /lib32/libc.so.6
iswpunct@GLIBC_2.0                                /lib32/libc.so.6
iswpunct_l                                        /lib32/libc.so.6
iswpunct_l@@GLIBC_2.3                             /lib32/libc.so.6
iswpunct_l@GLIBC_2.3                              /lib32/libc.so.6
iswspace                                          /lib32/libc.so.6
iswspace@@GLIBC_2.0                               /lib32/libc.so.6
iswspace@GLIBC_2.0                                /lib32/libc.so.6
iswspace_l                                        /lib32/libc.so.6
iswspace_l@@GLIBC_2.3                             /lib32/libc.so.6
iswspace_l@GLIBC_2.3                              /lib32/libc.so.6
iswupper                                          /lib32/libc.so.6
iswupper@@GLIBC_2.0                               /lib32/libc.so.6
iswupper@GLIBC_2.0                                /lib32/libc.so.6
iswupper_l                                        /lib32/libc.so.6
iswupper_l@@GLIBC_2.3                             /lib32/libc.so.6
iswupper_l@GLIBC_2.3                              /lib32/libc.so.6
iswxdigit                                         /lib32/libc.so.6
iswxdigit@@GLIBC_2.0                              /lib32/libc.so.6
iswxdigit@GLIBC_2.0                               /lib32/libc.so.6
iswxdigit_l                                       /lib32/libc.so.6
iswxdigit_l@@GLIBC_2.3                            /lib32/libc.so.6
iswxdigit_l@GLIBC_2.3                             /lib32/libc.so.6
isxdigit_l                                        /lib32/libc.so.6
isxdigit_l@@GLIBC_2.3                             /lib32/libc.so.6
isxdigit_l@GLIBC_2.3                              /lib32/libc.so.6
jrand48_r                                         /lib32/libc.so.6
jrand48_r@@GLIBC_2.0                              /lib32/libc.so.6
jrand48_r@GLIBC_2.0                               /lib32/libc.so.6
kernel_init                                       /home/evanosky/workspace/kubos-core/bin/native/core.a(kernel_init.o)
                                                  /home/evanosky/workspace/kubos-core/bin/native/cpu/startup.o
kill                                              /lib32/libc.so.6
kill@@GLIBC_2.0                                   /lib32/libc.so.6
kill@GLIBC_2.0                                    /lib32/libc.so.6
lchown                                            /lib32/libc.so.6
lchown@@GLIBC_2.0                                 /lib32/libc.so.6
lchown@GLIBC_2.0                                  /lib32/libc.so.6
lckpwdf                                           /lib32/libc.so.6
lckpwdf@@GLIBC_2.0                                /lib32/libc.so.6
lckpwdf@GLIBC_2.0                                 /lib32/libc.so.6
lcong48_r                                         /lib32/libc.so.6
lcong48_r@@GLIBC_2.0                              /lib32/libc.so.6
lcong48_r@GLIBC_2.0                               /lib32/libc.so.6
ldexp                                             /lib32/libc.so.6
ldexp@@GLIBC_2.0                                  /lib32/libc.so.6
ldexp@GLIBC_2.0                                   /lib32/libc.so.6
ldexpf                                            /lib32/libc.so.6
ldexpf@@GLIBC_2.0                                 /lib32/libc.so.6
ldexpf@GLIBC_2.0                                  /lib32/libc.so.6
ldexpl                                            /lib32/libc.so.6
ldexpl@@GLIBC_2.0                                 /lib32/libc.so.6
ldexpl@GLIBC_2.0                                  /lib32/libc.so.6
lifo_empty                                        /home/evanosky/workspace/kubos-core/bin/native/core.a(lifo.o)
                                                  /home/evanosky/workspace/kubos-core/bin/native/core.a(hwtimer.o)
lifo_get                                          /home/evanosky/workspace/kubos-core/bin/native/core.a(lifo.o)
                                                  /home/evanosky/workspace/kubos-core/bin/native/core.a(hwtimer.o)
lifo_init                                         /home/evanosky/workspace/kubos-core/bin/native/core.a(lifo.o)
                                                  /home/evanosky/workspace/kubos-core/bin/native/core.a(hwtimer.o)
lifo_insert                                       /home/evanosky/workspace/kubos-core/bin/native/core.a(lifo.o)
                                                  /home/evanosky/workspace/kubos-core/bin/native/core.a(hwtimer.o)
link                                              /lib32/libc.so.6
link@@GLIBC_2.0                                   /lib32/libc.so.6
link@GLIBC_2.0                                    /lib32/libc.so.6
llseek                                            /lib32/libc.so.6
llseek@@GLIBC_2.0                                 /lib32/libc.so.6
llseek@GLIBC_2.0                                  /lib32/libc.so.6
localtime_r                                       /lib32/libc.so.6
localtime_r@@GLIBC_2.0                            /lib32/libc.so.6
localtime_r@GLIBC_2.0                             /lib32/libc.so.6
longjmp                                           /lib32/libc.so.6
longjmp@@GLIBC_2.0                                /lib32/libc.so.6
longjmp@GLIBC_2.0                                 /lib32/libc.so.6
lpm_awake                                         /home/evanosky/workspace/kubos-core/bin/native/cpu.a(lpm_cpu.o)
lpm_begin_awake                                   /home/evanosky/workspace/kubos-core/bin/native/cpu.a(lpm_cpu.o)
lpm_end_awake                                     /home/evanosky/workspace/kubos-core/bin/native/cpu.a(lpm_cpu.o)
lpm_get                                           /home/evanosky/workspace/kubos-core/bin/native/cpu.a(lpm_cpu.o)
lpm_init                                          /home/evanosky/workspace/kubos-core/bin/native/cpu.a(lpm_cpu.o)
lpm_prevent_sleep                                 /home/evanosky/workspace/kubos-core/bin/native/core.a(kernel_init.o)
                                                  /home/evanosky/workspace/kubos-core/bin/native/core.a(hwtimer.o)
lpm_set                                           /home/evanosky/workspace/kubos-core/bin/native/cpu.a(lpm_cpu.o)
                                                  /home/evanosky/workspace/kubos-core/bin/native/cpu.a(irq_cpu.o)
                                                  /home/evanosky/workspace/kubos-core/bin/native/core.a(kernel_init.o)
lseek                                             /lib32/libc.so.6
lseek64                                           /lib32/libc.so.6
lseek64@@GLIBC_2.1                                /lib32/libc.so.6
lseek64@GLIBC_2.1                                 /lib32/libc.so.6
lseek@@GLIBC_2.0                                  /lib32/libc.so.6
lseek@GLIBC_2.0                                   /lib32/libc.so.6
madvise                                           /lib32/libc.so.6
madvise@@GLIBC_2.0                                /lib32/libc.so.6
madvise@GLIBC_2.0                                 /lib32/libc.so.6
main                                              /home/evanosky/workspace/kubos-core/bin/native/kubos-core.a(main.o)
                                                  /home/evanosky/workspace/kubos-core/bin/native/core.a(kernel_init.o)
                                                  /usr/lib/gcc/x86_64-linux-gnu/4.8/../../../../lib32/crt1.o
main_name                                         /home/evanosky/workspace/kubos-core/bin/native/core.a(kernel_init.o)
make_message                                      /home/evanosky/workspace/kubos-core/bin/native/cpu.a(syscalls.o)
makecontext                                       /lib32/libc.so.6
                                                  /home/evanosky/workspace/kubos-core/bin/native/cpu.a(syscalls.o)
                                                  /home/evanosky/workspace/kubos-core/bin/native/cpu.a(native_cpu.o)
                                                  /home/evanosky/workspace/kubos-core/bin/native/cpu.a(irq_cpu.o)
makecontext@@GLIBC_2.1                            /lib32/libc.so.6
makecontext@GLIBC_2.1                             /lib32/libc.so.6
mallinfo                                          /lib32/libc.so.6
mallinfo@@GLIBC_2.0                               /lib32/libc.so.6
mallinfo@GLIBC_2.0                                /lib32/libc.so.6
malloc                                            /home/evanosky/workspace/kubos-core/bin/native/cpu.a(syscalls.o)
malloc@@GLIBC_2.0                                 /lib32/libc.so.6
                                                  /lib32/ld-linux.so.2
malloc@GLIBC_2.0                                  /lib32/libc.so.6
malloc_get_state                                  /lib32/libc.so.6
malloc_get_state@@GLIBC_2.0                       /lib32/libc.so.6
malloc_get_state@GLIBC_2.0                        /lib32/libc.so.6
malloc_set_state                                  /lib32/libc.so.6
malloc_set_state@@GLIBC_2.0                       /lib32/libc.so.6
malloc_set_state@GLIBC_2.0                        /lib32/libc.so.6
malloc_stats                                      /lib32/libc.so.6
malloc_stats@@GLIBC_2.0                           /lib32/libc.so.6
malloc_stats@GLIBC_2.0                            /lib32/libc.so.6
malloc_trim                                       /lib32/libc.so.6
malloc_trim@@GLIBC_2.0                            /lib32/libc.so.6
malloc_trim@GLIBC_2.0                             /lib32/libc.so.6
malloc_usable_size                                /lib32/libc.so.6
malloc_usable_size@@GLIBC_2.0                     /lib32/libc.so.6
malloc_usable_size@GLIBC_2.0                      /lib32/libc.so.6
mallopt                                           /lib32/libc.so.6
mallopt@@GLIBC_2.0                                /lib32/libc.so.6
mallopt@GLIBC_2.0                                 /lib32/libc.so.6
mbrlen                                            /lib32/libc.so.6
mbrlen@@GLIBC_2.0                                 /lib32/libc.so.6
mbrlen@GLIBC_2.0                                  /lib32/libc.so.6
mbrtoc32                                          /lib32/libc.so.6
mbrtoc32@@GLIBC_2.16                              /lib32/libc.so.6
mbrtoc32@GLIBC_2.16                               /lib32/libc.so.6
mbrtowc                                           /lib32/libc.so.6
mbrtowc@@GLIBC_2.0                                /lib32/libc.so.6
mbrtowc@GLIBC_2.0                                 /lib32/libc.so.6
mbsinit                                           /lib32/libc.so.6
mbsinit@@GLIBC_2.0                                /lib32/libc.so.6
mbsinit@GLIBC_2.0                                 /lib32/libc.so.6
mbsnrtowcs                                        /lib32/libc.so.6
mbsnrtowcs@@GLIBC_2.0                             /lib32/libc.so.6
mbsnrtowcs@GLIBC_2.0                              /lib32/libc.so.6
mbsrtowcs                                         /lib32/libc.so.6
mbsrtowcs@@GLIBC_2.0                              /lib32/libc.so.6
mbsrtowcs@GLIBC_2.0                               /lib32/libc.so.6
mcount                                            /lib32/libc.so.6
mcount@@GLIBC_2.0                                 /lib32/libc.so.6
mcount@GLIBC_2.0                                  /lib32/libc.so.6
memalign                                          /lib32/libc.so.6
memalign@@GLIBC_2.0                               /lib32/libc.so.6
memalign@GLIBC_2.0                                /lib32/libc.so.6
memccpy                                           /lib32/libc.so.6
memccpy@@GLIBC_2.0                                /lib32/libc.so.6
memccpy@GLIBC_2.0                                 /lib32/libc.so.6
memchr                                            /lib32/libc.so.6
memchr@@GLIBC_2.0                                 /lib32/libc.so.6
memchr@GLIBC_2.0                                  /lib32/libc.so.6
memcpy                                            /lib32/libc.so.6
                                                  /home/evanosky/workspace/kubos-core/bin/native/core.a(ringbuffer.o)
memcpy@@GLIBC_2.0                                 /lib32/libc.so.6
memcpy@GLIBC_2.0                                  /lib32/libc.so.6
mempcpy                                           /lib32/libc.so.6
mempcpy@@GLIBC_2.1                                /lib32/libc.so.6
mempcpy@GLIBC_2.1                                 /lib32/libc.so.6
memrchr                                           /lib32/libc.so.6
memrchr@@GLIBC_2.2                                /lib32/libc.so.6
memrchr@GLIBC_2.2                                 /lib32/libc.so.6
memset                                            /lib32/libc.so.6
                                                  /home/evanosky/workspace/kubos-core/bin/native/native_base.a(native-uart0.o)
                                                  /home/evanosky/workspace/kubos-core/bin/native/vtimer.a(vtimer.o)
                                                  /home/evanosky/workspace/kubos-core/bin/native/periph.a(timer.o)
                                                  /home/evanosky/workspace/kubos-core/bin/native/cpu.a(irq_cpu.o)
memset@@GLIBC_2.0                                 /lib32/libc.so.6
memset@GLIBC_2.0                                  /lib32/libc.so.6
mkdir                                             /lib32/libc.so.6
mkdir@@GLIBC_2.0                                  /lib32/libc.so.6
mkdir@GLIBC_2.0                                   /lib32/libc.so.6
mktemp                                            /lib32/libc.so.6
mktemp@@GLIBC_2.0                                 /lib32/libc.so.6
mktemp@GLIBC_2.0                                  /lib32/libc.so.6
mmap                                              /lib32/libc.so.6
mmap64                                            /lib32/libc.so.6
mmap64@@GLIBC_2.1                                 /lib32/libc.so.6
mmap64@GLIBC_2.1                                  /lib32/libc.so.6
mmap@@GLIBC_2.0                                   /lib32/libc.so.6
mmap@GLIBC_2.0                                    /lib32/libc.so.6
modf                                              /lib32/libc.so.6
modf@@GLIBC_2.0                                   /lib32/libc.so.6
modf@GLIBC_2.0                                    /lib32/libc.so.6
modff                                             /lib32/libc.so.6
modff@@GLIBC_2.0                                  /lib32/libc.so.6
modff@GLIBC_2.0                                   /lib32/libc.so.6
modfl                                             /lib32/libc.so.6
modfl@@GLIBC_2.0                                  /lib32/libc.so.6
modfl@GLIBC_2.0                                   /lib32/libc.so.6
modify_ldt                                        /lib32/libc.so.6
modify_ldt@@GLIBC_2.1                             /lib32/libc.so.6
modify_ldt@GLIBC_2.1                              /lib32/libc.so.6
moncontrol                                        /lib32/libc.so.6
moncontrol@@GLIBC_2.2                             /lib32/libc.so.6
moncontrol@GLIBC_2.2                              /lib32/libc.so.6
monstartup                                        /lib32/libc.so.6
monstartup@@GLIBC_2.0                             /lib32/libc.so.6
monstartup@GLIBC_2.0                              /lib32/libc.so.6
mount                                             /lib32/libc.so.6
mount@@GLIBC_2.0                                  /lib32/libc.so.6
mount@GLIBC_2.0                                   /lib32/libc.so.6
mprotect                                          /lib32/libc.so.6
mprotect@@GLIBC_2.0                               /lib32/libc.so.6
mprotect@GLIBC_2.0                                /lib32/libc.so.6
mremap                                            /lib32/libc.so.6
mremap@@GLIBC_2.0                                 /lib32/libc.so.6
mremap@GLIBC_2.0                                  /lib32/libc.so.6
msg_init_queue                                    /home/evanosky/workspace/kubos-core/bin/native/core.a(msg.o)
msg_receive                                       /home/evanosky/workspace/kubos-core/bin/native/core.a(msg.o)
                                                  /home/evanosky/workspace/kubos-core/bin/native/sys.a(chardev_thread.o)
                                                  /home/evanosky/workspace/kubos-core/bin/native/vtimer.a(vtimer.o)
msg_reply                                         /home/evanosky/workspace/kubos-core/bin/native/core.a(msg.o)
                                                  /home/evanosky/workspace/kubos-core/bin/native/sys.a(chardev_thread.o)
msg_reply_int                                     /home/evanosky/workspace/kubos-core/bin/native/core.a(msg.o)
msg_send                                          /home/evanosky/workspace/kubos-core/bin/native/core.a(msg.o)
msg_send_int                                      /home/evanosky/workspace/kubos-core/bin/native/core.a(msg.o)
                                                  /home/evanosky/workspace/kubos-core/bin/native/uart0.a(uart0.o)
                                                  /home/evanosky/workspace/kubos-core/bin/native/vtimer.a(vtimer.o)
msg_send_receive                                  /home/evanosky/workspace/kubos-core/bin/native/core.a(msg.o)
                                                  /home/evanosky/workspace/kubos-core/bin/native/posix.a(posix_io.o)
msg_send_to_self                                  /home/evanosky/workspace/kubos-core/bin/native/core.a(msg.o)
msg_try_receive                                   /home/evanosky/workspace/kubos-core/bin/native/core.a(msg.o)
msg_try_send                                      /home/evanosky/workspace/kubos-core/bin/native/core.a(msg.o)
msgrcv                                            /lib32/libc.so.6
msgrcv@@GLIBC_2.0                                 /lib32/libc.so.6
msgrcv@GLIBC_2.0                                  /lib32/libc.so.6
msgsnd                                            /lib32/libc.so.6
msgsnd@@GLIBC_2.0                                 /lib32/libc.so.6
msgsnd@GLIBC_2.0                                  /lib32/libc.so.6
msync                                             /lib32/libc.so.6
msync@@GLIBC_2.0                                  /lib32/libc.so.6
msync@GLIBC_2.0                                   /lib32/libc.so.6
munmap                                            /lib32/libc.so.6
munmap@@GLIBC_2.0                                 /lib32/libc.so.6
munmap@GLIBC_2.0                                  /lib32/libc.so.6
mutex_lock                                        /home/evanosky/workspace/kubos-core/bin/native/core.a(mutex.o)
                                                  /home/evanosky/workspace/kubos-core/bin/native/vtimer.a(vtimer.o)
                                                  /home/evanosky/workspace/kubos-core/bin/native/core.a(hwtimer.o)
mutex_trylock                                     /home/evanosky/workspace/kubos-core/bin/native/core.a(mutex.o)
mutex_unlock                                      /home/evanosky/workspace/kubos-core/bin/native/core.a(mutex.o)
                                                  /home/evanosky/workspace/kubos-core/bin/native/vtimer.a(vtimer.o)
                                                  /home/evanosky/workspace/kubos-core/bin/native/core.a(hwtimer.o)
mutex_unlock_and_sleep                            /home/evanosky/workspace/kubos-core/bin/native/core.a(mutex.o)
nanosleep                                         /lib32/libc.so.6
nanosleep@@GLIBC_2.0                              /lib32/libc.so.6
nanosleep@GLIBC_2.0                               /lib32/libc.so.6
native_cpu_init                                   /home/evanosky/workspace/kubos-core/bin/native/cpu.a(native_cpu.o)
                                                  /home/evanosky/workspace/kubos-core/bin/native/cpu/startup.o
native_interrupt_init                             /home/evanosky/workspace/kubos-core/bin/native/cpu.a(irq_cpu.o)
                                                  /home/evanosky/workspace/kubos-core/bin/native/cpu/startup.o
native_interrupts_enabled                         /home/evanosky/workspace/kubos-core/bin/native/cpu.a(irq_cpu.o)
                                                  /home/evanosky/workspace/kubos-core/bin/native/cpu.a(syscalls.o)
                                                  /home/evanosky/workspace/kubos-core/bin/native/cpu.a(native_cpu.o)
native_irq_handler                                /home/evanosky/workspace/kubos-core/bin/native/cpu.a(irq_cpu.o)
                                                  /home/evanosky/workspace/kubos-core/bin/native/cpu.a(syscalls.o)
native_isr_context                                /home/evanosky/workspace/kubos-core/bin/native/cpu.a(irq_cpu.o)
                                                  /home/evanosky/workspace/kubos-core/bin/native/cpu.a(syscalls.o)
                                                  /home/evanosky/workspace/kubos-core/bin/native/cpu.a(native_cpu.o)
native_isr_entry                                  /home/evanosky/workspace/kubos-core/bin/native/cpu.a(irq_cpu.o)
native_isr_timer                                  /home/evanosky/workspace/kubos-core/bin/native/periph.a(timer.o)
native_print_signals                              /home/evanosky/workspace/kubos-core/bin/native/cpu.a(irq_cpu.o)
newlocale                                         /lib32/libc.so.6
newlocale@@GLIBC_2.3                              /lib32/libc.so.6
newlocale@GLIBC_2.3                               /lib32/libc.so.6
ngettext                                          /lib32/libc.so.6
ngettext@@GLIBC_2.2                               /lib32/libc.so.6
ngettext@GLIBC_2.2                                /lib32/libc.so.6
nl_langinfo_l                                     /lib32/libc.so.6
nl_langinfo_l@@GLIBC_2.3                          /lib32/libc.so.6
nl_langinfo_l@GLIBC_2.3                           /lib32/libc.so.6
normalize_to_tick                                 /home/evanosky/workspace/kubos-core/bin/native/vtimer.a(vtimer.o)
nrand48_r                                         /lib32/libc.so.6
nrand48_r@@GLIBC_2.0                              /lib32/libc.so.6
nrand48_r@GLIBC_2.0                               /lib32/libc.so.6
ntohl                                             /lib32/libc.so.6
ntohl@@GLIBC_2.0                                  /lib32/libc.so.6
ntohl@GLIBC_2.0                                   /lib32/libc.so.6
ntohs                                             /lib32/libc.so.6
ntohs@@GLIBC_2.0                                  /lib32/libc.so.6
ntohs@GLIBC_2.0                                   /lib32/libc.so.6
ntp_adjtime                                       /lib32/libc.so.6
ntp_adjtime@@GLIBC_2.1                            /lib32/libc.so.6
ntp_adjtime@GLIBC_2.1                             /lib32/libc.so.6
obstack_printf                                    /lib32/libc.so.6
obstack_printf@@GLIBC_2.0                         /lib32/libc.so.6
obstack_printf@GLIBC_2.0                          /lib32/libc.so.6
obstack_vprintf                                   /lib32/libc.so.6
obstack_vprintf@@GLIBC_2.0                        /lib32/libc.so.6
obstack_vprintf@GLIBC_2.0                         /lib32/libc.so.6
on_exit                                           /lib32/libc.so.6
on_exit@@GLIBC_2.0                                /lib32/libc.so.6
on_exit@GLIBC_2.0                                 /lib32/libc.so.6
open                                              /lib32/libc.so.6
open64                                            /lib32/libc.so.6
open64@@GLIBC_2.1                                 /lib32/libc.so.6
open64@GLIBC_2.1                                  /lib32/libc.so.6
open@@GLIBC_2.0                                   /lib32/libc.so.6
open@GLIBC_2.0                                    /lib32/libc.so.6
openat                                            /lib32/libc.so.6
openat64                                          /lib32/libc.so.6
openat64@@GLIBC_2.4                               /lib32/libc.so.6
openat64@GLIBC_2.4                                /lib32/libc.so.6
openat@@GLIBC_2.4                                 /lib32/libc.so.6
openat@GLIBC_2.4                                  /lib32/libc.so.6
opendir                                           /lib32/libc.so.6
opendir@@GLIBC_2.0                                /lib32/libc.so.6
opendir@GLIBC_2.0                                 /lib32/libc.so.6
pathconf                                          /lib32/libc.so.6
pathconf@@GLIBC_2.0                               /lib32/libc.so.6
pathconf@GLIBC_2.0                                /lib32/libc.so.6
pause                                             /lib32/libc.so.6
pause@@GLIBC_2.0                                  /lib32/libc.so.6
pause@GLIBC_2.0                                   /lib32/libc.so.6
personality                                       /lib32/libc.so.6
personality@@GLIBC_2.0                            /lib32/libc.so.6
personality@GLIBC_2.0                             /lib32/libc.so.6
pipe                                              /lib32/libc.so.6
pipe2                                             /lib32/libc.so.6
pipe2@@GLIBC_2.9                                  /lib32/libc.so.6
pipe2@GLIBC_2.9                                   /lib32/libc.so.6
pipe@@GLIBC_2.0                                   /lib32/libc.so.6
pipe@GLIBC_2.0                                    /lib32/libc.so.6
poll                                              /lib32/libc.so.6
poll@@GLIBC_2.0                                   /lib32/libc.so.6
poll@GLIBC_2.0                                    /lib32/libc.so.6
posix_close                                       /home/evanosky/workspace/kubos-core/bin/native/posix.a(posix_io.o)
posix_memalign                                    /lib32/libc.so.6
posix_memalign@@GLIBC_2.2                         /lib32/libc.so.6
posix_memalign@GLIBC_2.2                          /lib32/libc.so.6
posix_open                                        /home/evanosky/workspace/kubos-core/bin/native/posix.a(posix_io.o)
                                                  /home/evanosky/workspace/kubos-core/bin/native/kubos-core.a(main.o)
posix_openpt                                      /lib32/libc.so.6
posix_openpt@@GLIBC_2.2.1                         /lib32/libc.so.6
posix_openpt@GLIBC_2.2.1                          /lib32/libc.so.6
posix_read                                        /home/evanosky/workspace/kubos-core/bin/native/posix.a(posix_io.o)
                                                  /home/evanosky/workspace/kubos-core/bin/native/uart0.a(uart0.o)
posix_write                                       /home/evanosky/workspace/kubos-core/bin/native/posix.a(posix_io.o)
prctl                                             /lib32/libc.so.6
prctl@@GLIBC_2.0                                  /lib32/libc.so.6
prctl@GLIBC_2.0                                   /lib32/libc.so.6
pread                                             /lib32/libc.so.6
pread64                                           /lib32/libc.so.6
pread64@@GLIBC_2.1                                /lib32/libc.so.6
pread64@GLIBC_2.1                                 /lib32/libc.so.6
pread@@GLIBC_2.1                                  /lib32/libc.so.6
pread@GLIBC_2.1                                   /lib32/libc.so.6
print_thread_sigmask                              /home/evanosky/workspace/kubos-core/bin/native/cpu.a(irq_cpu.o)
printf                                            /home/evanosky/workspace/kubos-core/bin/native/cpu.a(syscalls.o)
                                                  /home/evanosky/workspace/kubos-core/bin/native/shell.a(shell.o)
                                                  /home/evanosky/workspace/kubos-core/bin/native/cpu.a(irq_cpu.o)
                                                  /home/evanosky/workspace/kubos-core/bin/native/core.a(kernel_init.o)
printf@@GLIBC_2.0                                 /lib32/libc.so.6
printf@GLIBC_2.0                                  /lib32/libc.so.6
priority_queue_add                                /home/evanosky/workspace/kubos-core/bin/native/core.a(priority_queue.o)
                                                  /home/evanosky/workspace/kubos-core/bin/native/core.a(msg.o)
                                                  /home/evanosky/workspace/kubos-core/bin/native/vtimer.a(vtimer.o)
                                                  /home/evanosky/workspace/kubos-core/bin/native/core.a(mutex.o)
priority_queue_remove                             /home/evanosky/workspace/kubos-core/bin/native/core.a(priority_queue.o)
                                                  /home/evanosky/workspace/kubos-core/bin/native/vtimer.a(vtimer.o)
priority_queue_remove_head                        /home/evanosky/workspace/kubos-core/bin/native/core.a(priority_queue.o)
                                                  /home/evanosky/workspace/kubos-core/bin/native/core.a(msg.o)
                                                  /home/evanosky/workspace/kubos-core/bin/native/vtimer.a(vtimer.o)
                                                  /home/evanosky/workspace/kubos-core/bin/native/core.a(mutex.o)
profil                                            /lib32/libc.so.6
profil@@GLIBC_2.0                                 /lib32/libc.so.6
profil@GLIBC_2.0                                  /lib32/libc.so.6
program_invocation_name                           /lib32/libc.so.6
program_invocation_name@@GLIBC_2.0                /lib32/libc.so.6
program_invocation_name@GLIBC_2.0                 /lib32/libc.so.6
program_invocation_short_name                     /lib32/libc.so.6
program_invocation_short_name@@GLIBC_2.0          /lib32/libc.so.6
program_invocation_short_name@GLIBC_2.0           /lib32/libc.so.6
pselect                                           /lib32/libc.so.6
pselect@@GLIBC_2.0                                /lib32/libc.so.6
pselect@GLIBC_2.0                                 /lib32/libc.so.6
pthread_setcancelstate                            /lib32/libc.so.6
pthread_setcancelstate@@GLIBC_2.0                 /lib32/libc.so.6
pthread_setcancelstate@GLIBC_2.0                  /lib32/libc.so.6
ptsname_r                                         /lib32/libc.so.6
ptsname_r@@GLIBC_2.1                              /lib32/libc.so.6
ptsname_r@GLIBC_2.1                               /lib32/libc.so.6
putc                                              /lib32/libc.so.6
putc@@GLIBC_2.0                                   /lib32/libc.so.6
putc@GLIBC_2.0                                    /lib32/libc.so.6
putchar                                           /home/evanosky/workspace/kubos-core/bin/native/cpu.a(syscalls.o)
                                                  /home/evanosky/workspace/kubos-core/bin/native/uart0.a(uart0.o)
putchar@@GLIBC_2.0                                /lib32/libc.so.6
putchar@GLIBC_2.0                                 /lib32/libc.so.6
puts                                              /home/evanosky/workspace/kubos-core/bin/native/cpu.a(syscalls.o)
                                                  /home/evanosky/workspace/kubos-core/bin/native/sys.a(chardev_thread.o)
                                                  /home/evanosky/workspace/kubos-core/bin/native/uart0.a(uart0.o)
                                                  /home/evanosky/workspace/kubos-core/bin/native/shell.a(shell.o)
                                                  /home/evanosky/workspace/kubos-core/bin/native/kubos-core.a(main.o)
                                                  /home/evanosky/workspace/kubos-core/bin/native/native_base.a(native-led.o)
                                                  /home/evanosky/workspace/kubos-core/bin/native/native_base.a(board_init.o)
                                                  /home/evanosky/workspace/kubos-core/bin/native/native_base.a(native-uart0.o)
                                                  /home/evanosky/workspace/kubos-core/bin/native/cpu.a(native_cpu.o)
                                                  /home/evanosky/workspace/kubos-core/bin/native/cpu.a(lpm_cpu.o)
                                                  /home/evanosky/workspace/kubos-core/bin/native/cpu.a(irq_cpu.o)
                                                  /home/evanosky/workspace/kubos-core/bin/native/core.a(hwtimer.o)
                                                  /home/evanosky/workspace/kubos-core/bin/native/core.a(kernel_init.o)
                                                  /home/evanosky/workspace/kubos-core/bin/native/cpu/startup.o
puts@@GLIBC_2.0                                   /lib32/libc.so.6
puts@GLIBC_2.0                                    /lib32/libc.so.6
pututline                                         /lib32/libc.so.6
pututline@@GLIBC_2.0                              /lib32/libc.so.6
pututline@GLIBC_2.0                               /lib32/libc.so.6
pvalloc                                           /lib32/libc.so.6
pvalloc@@GLIBC_2.0                                /lib32/libc.so.6
pvalloc@GLIBC_2.0                                 /lib32/libc.so.6
pwrite                                            /lib32/libc.so.6
pwrite64                                          /lib32/libc.so.6
pwrite64@@GLIBC_2.1                               /lib32/libc.so.6
pwrite64@GLIBC_2.1                                /lib32/libc.so.6
pwrite@@GLIBC_2.1                                 /lib32/libc.so.6
pwrite@GLIBC_2.1                                  /lib32/libc.so.6
random                                            /lib32/libc.so.6
random@@GLIBC_2.0                                 /lib32/libc.so.6
random@GLIBC_2.0                                  /lib32/libc.so.6
random_r                                          /lib32/libc.so.6
random_r@@GLIBC_2.0                               /lib32/libc.so.6
random_r@GLIBC_2.0                                /lib32/libc.so.6
rawmemchr                                         /lib32/libc.so.6
rawmemchr@@GLIBC_2.1                              /lib32/libc.so.6
rawmemchr@GLIBC_2.1                               /lib32/libc.so.6
re_comp                                           /lib32/libc.so.6
re_comp@@GLIBC_2.0                                /lib32/libc.so.6
re_comp@GLIBC_2.0                                 /lib32/libc.so.6
re_compile_fastmap                                /lib32/libc.so.6
re_compile_fastmap@@GLIBC_2.0                     /lib32/libc.so.6
re_compile_fastmap@GLIBC_2.0                      /lib32/libc.so.6
re_compile_pattern                                /lib32/libc.so.6
re_compile_pattern@@GLIBC_2.0                     /lib32/libc.so.6
re_compile_pattern@GLIBC_2.0                      /lib32/libc.so.6
re_exec                                           /lib32/libc.so.6
re_exec@@GLIBC_2.0                                /lib32/libc.so.6
re_exec@GLIBC_2.0                                 /lib32/libc.so.6
re_match                                          /lib32/libc.so.6
re_match@@GLIBC_2.0                               /lib32/libc.so.6
re_match@GLIBC_2.0                                /lib32/libc.so.6
re_match_2                                        /lib32/libc.so.6
re_match_2@@GLIBC_2.0                             /lib32/libc.so.6
re_match_2@GLIBC_2.0                              /lib32/libc.so.6
re_search                                         /lib32/libc.so.6
re_search@@GLIBC_2.0                              /lib32/libc.so.6
re_search@GLIBC_2.0                               /lib32/libc.so.6
re_search_2                                       /lib32/libc.so.6
re_search_2@@GLIBC_2.0                            /lib32/libc.so.6
re_search_2@GLIBC_2.0                             /lib32/libc.so.6
re_set_registers                                  /lib32/libc.so.6
re_set_registers@@GLIBC_2.0                       /lib32/libc.so.6
re_set_registers@GLIBC_2.0                        /lib32/libc.so.6
re_set_syntax                                     /lib32/libc.so.6
re_set_syntax@@GLIBC_2.0                          /lib32/libc.so.6
re_set_syntax@GLIBC_2.0                           /lib32/libc.so.6
read                                              /lib32/libc.so.6
read@@GLIBC_2.0                                   /lib32/libc.so.6
read@GLIBC_2.0                                    /lib32/libc.so.6
readahead                                         /lib32/libc.so.6
readahead@@GLIBC_2.3                              /lib32/libc.so.6
readahead@GLIBC_2.3                               /lib32/libc.so.6
readdir                                           /lib32/libc.so.6
readdir@@GLIBC_2.0                                /lib32/libc.so.6
readdir@GLIBC_2.0                                 /lib32/libc.so.6
readdir_r                                         /lib32/libc.so.6
readdir_r@@GLIBC_2.0                              /lib32/libc.so.6
readdir_r@GLIBC_2.0                               /lib32/libc.so.6
readlink                                          /lib32/libc.so.6
readlink@@GLIBC_2.0                               /lib32/libc.so.6
readlink@GLIBC_2.0                                /lib32/libc.so.6
readv                                             /lib32/libc.so.6
readv@@GLIBC_2.0                                  /lib32/libc.so.6
readv@GLIBC_2.0                                   /lib32/libc.so.6
real_accept                                       /home/evanosky/workspace/kubos-core/bin/native/cpu.a(syscalls.o)
                                                  /home/evanosky/workspace/kubos-core/bin/native/native_base.a(native-uart0.o)
real_bind                                         /home/evanosky/workspace/kubos-core/bin/native/cpu.a(syscalls.o)
                                                  /home/evanosky/workspace/kubos-core/bin/native/native_base.a(native-uart0.o)
real_calloc                                       /home/evanosky/workspace/kubos-core/bin/native/cpu.a(syscalls.o)
real_chdir                                        /home/evanosky/workspace/kubos-core/bin/native/cpu.a(syscalls.o)
                                                  /home/evanosky/workspace/kubos-core/bin/native/cpu/startup.o
real_clearerr                                     /home/evanosky/workspace/kubos-core/bin/native/cpu.a(syscalls.o)
                                                  /home/evanosky/workspace/kubos-core/bin/native/native_base.a(native-uart0.o)
real_clock_gettime                                /home/evanosky/workspace/kubos-core/bin/native/cpu.a(syscalls.o)
                                                  /home/evanosky/workspace/kubos-core/bin/native/periph.a(timer.o)
real_close                                        /home/evanosky/workspace/kubos-core/bin/native/cpu.a(syscalls.o)
                                                  /home/evanosky/workspace/kubos-core/bin/native/native_base.a(native-uart0.o)
real_creat                                        /home/evanosky/workspace/kubos-core/bin/native/cpu.a(syscalls.o)
                                                  /home/evanosky/workspace/kubos-core/bin/native/cpu/startup.o
real_dup2                                         /home/evanosky/workspace/kubos-core/bin/native/cpu.a(syscalls.o)
                                                  /home/evanosky/workspace/kubos-core/bin/native/native_base.a(native-uart0.o)
                                                  /home/evanosky/workspace/kubos-core/bin/native/cpu/startup.o
real_execve                                       /home/evanosky/workspace/kubos-core/bin/native/cpu.a(syscalls.o)
                                                  /home/evanosky/workspace/kubos-core/bin/native/cpu.a(native_cpu.o)
real_exit                                         /home/evanosky/workspace/kubos-core/bin/native/cpu.a(syscalls.o)
                                                  /home/evanosky/workspace/kubos-core/bin/native/cpu.a(lpm_cpu.o)
                                                  /home/evanosky/workspace/kubos-core/bin/native/cpu/startup.o
real_feof                                         /home/evanosky/workspace/kubos-core/bin/native/cpu.a(syscalls.o)
                                                  /home/evanosky/workspace/kubos-core/bin/native/native_base.a(native-uart0.o)
real_ferror                                       /home/evanosky/workspace/kubos-core/bin/native/cpu.a(syscalls.o)
                                                  /home/evanosky/workspace/kubos-core/bin/native/native_base.a(native-uart0.o)
real_fopen                                        /home/evanosky/workspace/kubos-core/bin/native/cpu.a(syscalls.o)
                                                  /home/evanosky/workspace/kubos-core/bin/native/native_base.a(native-uart0.o)
real_fork                                         /home/evanosky/workspace/kubos-core/bin/native/cpu.a(syscalls.o)
                                                  /home/evanosky/workspace/kubos-core/bin/native/cpu/startup.o
real_fread                                        /home/evanosky/workspace/kubos-core/bin/native/cpu.a(syscalls.o)
                                                  /home/evanosky/workspace/kubos-core/bin/native/native_base.a(native-uart0.o)
real_free                                         /home/evanosky/workspace/kubos-core/bin/native/cpu.a(syscalls.o)
real_freeaddrinfo                                 /home/evanosky/workspace/kubos-core/bin/native/cpu.a(syscalls.o)
                                                  /home/evanosky/workspace/kubos-core/bin/native/native_base.a(native-uart0.o)
real_freeifaddrs                                  /home/evanosky/workspace/kubos-core/bin/native/cpu.a(syscalls.o)
real_gai_strerror                                 /home/evanosky/workspace/kubos-core/bin/native/cpu.a(syscalls.o)
                                                  /home/evanosky/workspace/kubos-core/bin/native/native_base.a(native-uart0.o)
real_getaddrinfo                                  /home/evanosky/workspace/kubos-core/bin/native/cpu.a(syscalls.o)
                                                  /home/evanosky/workspace/kubos-core/bin/native/native_base.a(native-uart0.o)
real_getifaddrs                                   /home/evanosky/workspace/kubos-core/bin/native/cpu.a(syscalls.o)
real_getpid                                       /home/evanosky/workspace/kubos-core/bin/native/cpu.a(syscalls.o)
                                                  /home/evanosky/workspace/kubos-core/bin/native/cpu/startup.o
real_ioctl                                        /home/evanosky/workspace/kubos-core/bin/native/cpu.a(syscalls.o)
real_listen                                       /home/evanosky/workspace/kubos-core/bin/native/cpu.a(syscalls.o)
                                                  /home/evanosky/workspace/kubos-core/bin/native/native_base.a(native-uart0.o)
real_malloc                                       /home/evanosky/workspace/kubos-core/bin/native/cpu.a(syscalls.o)
real_open                                         /home/evanosky/workspace/kubos-core/bin/native/cpu.a(syscalls.o)
                                                  /home/evanosky/workspace/kubos-core/bin/native/cpu/startup.o
real_pause                                        /home/evanosky/workspace/kubos-core/bin/native/cpu.a(syscalls.o)
real_pipe                                         /home/evanosky/workspace/kubos-core/bin/native/cpu.a(syscalls.o)
                                                  /home/evanosky/workspace/kubos-core/bin/native/cpu.a(irq_cpu.o)
                                                  /home/evanosky/workspace/kubos-core/bin/native/cpu/startup.o
real_printf                                       /home/evanosky/workspace/kubos-core/bin/native/cpu.a(syscalls.o)
                                                  /home/evanosky/workspace/kubos-core/bin/native/cpu/startup.o
real_random                                       /home/evanosky/workspace/kubos-core/bin/native/cpu.a(syscalls.o)
real_read                                         /home/evanosky/workspace/kubos-core/bin/native/cpu.a(syscalls.o)
                                                  /home/evanosky/workspace/kubos-core/bin/native/cpu.a(irq_cpu.o)
real_realloc                                      /home/evanosky/workspace/kubos-core/bin/native/cpu.a(syscalls.o)
real_select                                       /home/evanosky/workspace/kubos-core/bin/native/cpu.a(syscalls.o)
                                                  /home/evanosky/workspace/kubos-core/bin/native/cpu.a(lpm_cpu.o)
real_setitimer                                    /home/evanosky/workspace/kubos-core/bin/native/cpu.a(syscalls.o)
                                                  /home/evanosky/workspace/kubos-core/bin/native/periph.a(timer.o)
real_setsid                                       /home/evanosky/workspace/kubos-core/bin/native/cpu.a(syscalls.o)
                                                  /home/evanosky/workspace/kubos-core/bin/native/cpu/startup.o
real_setsockopt                                   /home/evanosky/workspace/kubos-core/bin/native/cpu.a(syscalls.o)
                                                  /home/evanosky/workspace/kubos-core/bin/native/native_base.a(native-uart0.o)
real_socket                                       /home/evanosky/workspace/kubos-core/bin/native/cpu.a(syscalls.o)
                                                  /home/evanosky/workspace/kubos-core/bin/native/native_base.a(native-uart0.o)
real_srandom                                      /home/evanosky/workspace/kubos-core/bin/native/cpu.a(syscalls.o)
real_umask                                        /home/evanosky/workspace/kubos-core/bin/native/cpu.a(syscalls.o)
                                                  /home/evanosky/workspace/kubos-core/bin/native/cpu/startup.o
real_unlink                                       /home/evanosky/workspace/kubos-core/bin/native/cpu.a(syscalls.o)
                                                  /home/evanosky/workspace/kubos-core/bin/native/native_base.a(native-uart0.o)
real_write                                        /home/evanosky/workspace/kubos-core/bin/native/cpu.a(syscalls.o)
                                                  /home/evanosky/workspace/kubos-core/bin/native/native_base.a(native-uart0.o)
                                                  /home/evanosky/workspace/kubos-core/bin/native/cpu.a(irq_cpu.o)
realloc                                           /home/evanosky/workspace/kubos-core/bin/native/cpu.a(syscalls.o)
realloc@@GLIBC_2.0                                /lib32/libc.so.6
                                                  /lib32/ld-linux.so.2
realloc@GLIBC_2.0                                 /lib32/libc.so.6
reboot_arch                                       /home/evanosky/workspace/kubos-core/bin/native/cpu.a(native_cpu.o)
recv                                              /lib32/libc.so.6
recv@@GLIBC_2.0                                   /lib32/libc.so.6
recv@GLIBC_2.0                                    /lib32/libc.so.6
recvfrom                                          /lib32/libc.so.6
recvfrom@@GLIBC_2.0                               /lib32/libc.so.6
recvfrom@GLIBC_2.0                                /lib32/libc.so.6
recvmsg                                           /lib32/libc.so.6
recvmsg@@GLIBC_2.0                                /lib32/libc.so.6
recvmsg@GLIBC_2.0                                 /lib32/libc.so.6
regcomp                                           /lib32/libc.so.6
regcomp@@GLIBC_2.0                                /lib32/libc.so.6
regcomp@GLIBC_2.0                                 /lib32/libc.so.6
regerror                                          /lib32/libc.so.6
regerror@@GLIBC_2.0                               /lib32/libc.so.6
regerror@GLIBC_2.0                                /lib32/libc.so.6
regfree                                           /lib32/libc.so.6
regfree@@GLIBC_2.0                                /lib32/libc.so.6
regfree@GLIBC_2.0                                 /lib32/libc.so.6
register_interrupt                                /home/evanosky/workspace/kubos-core/bin/native/cpu.a(irq_cpu.o)
                                                  /home/evanosky/workspace/kubos-core/bin/native/periph.a(timer.o)
register_printf_function                          /lib32/libc.so.6
register_printf_function@@GLIBC_2.0               /lib32/libc.so.6
register_printf_function@GLIBC_2.0                /lib32/libc.so.6
register_printf_modifier                          /lib32/libc.so.6
register_printf_modifier@@GLIBC_2.10              /lib32/libc.so.6
register_printf_modifier@GLIBC_2.10               /lib32/libc.so.6
register_printf_specifier                         /lib32/libc.so.6
register_printf_specifier@@GLIBC_2.10             /lib32/libc.so.6
register_printf_specifier@GLIBC_2.10              /lib32/libc.so.6
register_printf_type                              /lib32/libc.so.6
register_printf_type@@GLIBC_2.10                  /lib32/libc.so.6
register_printf_type@GLIBC_2.10                   /lib32/libc.so.6
remap_file_pages                                  /lib32/libc.so.6
remap_file_pages@@GLIBC_2.3.3                     /lib32/libc.so.6
remap_file_pages@GLIBC_2.3.3                      /lib32/libc.so.6
res_init@GLIBC_2.0                                /lib32/libc.so.6
restoreIRQ                                        /home/evanosky/workspace/kubos-core/bin/native/cpu.a(irq_cpu.o)
                                                  /home/evanosky/workspace/kubos-core/bin/native/sys.a(chardev_thread.o)
                                                  /home/evanosky/workspace/kubos-core/bin/native/core.a(msg.o)
                                                  /home/evanosky/workspace/kubos-core/bin/native/vtimer.a(vtimer.o)
                                                  /home/evanosky/workspace/kubos-core/bin/native/core.a(atomic.o)
                                                  /home/evanosky/workspace/kubos-core/bin/native/core.a(mutex.o)
                                                  /home/evanosky/workspace/kubos-core/bin/native/core.a(hwtimer.o)
                                                  /home/evanosky/workspace/kubos-core/bin/native/core.a(thread.o)
rindex                                            /lib32/libc.so.6
rindex@@GLIBC_2.0                                 /lib32/libc.so.6
rindex@GLIBC_2.0                                  /lib32/libc.so.6
ringbuffer_add                                    /home/evanosky/workspace/kubos-core/bin/native/core.a(ringbuffer.o)
ringbuffer_add_one                                /home/evanosky/workspace/kubos-core/bin/native/core.a(ringbuffer.o)
                                                  /home/evanosky/workspace/kubos-core/bin/native/uart0.a(uart0.o)
ringbuffer_get                                    /home/evanosky/workspace/kubos-core/bin/native/core.a(ringbuffer.o)
                                                  /home/evanosky/workspace/kubos-core/bin/native/sys.a(chardev_thread.o)
ringbuffer_get_one                                /home/evanosky/workspace/kubos-core/bin/native/core.a(ringbuffer.o)
ringbuffer_peek                                   /home/evanosky/workspace/kubos-core/bin/native/core.a(ringbuffer.o)
ringbuffer_peek_one                               /home/evanosky/workspace/kubos-core/bin/native/core.a(ringbuffer.o)
ringbuffer_remove                                 /home/evanosky/workspace/kubos-core/bin/native/core.a(ringbuffer.o)
rmdir                                             /lib32/libc.so.6
rmdir@@GLIBC_2.0                                  /lib32/libc.so.6
rmdir@GLIBC_2.0                                   /lib32/libc.so.6
sbrk                                              /lib32/libc.so.6
sbrk@@GLIBC_2.0                                   /lib32/libc.so.6
sbrk@GLIBC_2.0                                    /lib32/libc.so.6
scalbln                                           /lib32/libc.so.6
scalbln@@GLIBC_2.1                                /lib32/libc.so.6
scalbln@GLIBC_2.1                                 /lib32/libc.so.6
scalblnf                                          /lib32/libc.so.6
scalblnf@@GLIBC_2.1                               /lib32/libc.so.6
scalblnf@GLIBC_2.1                                /lib32/libc.so.6
scalblnl                                          /lib32/libc.so.6
scalblnl@@GLIBC_2.1                               /lib32/libc.so.6
scalblnl@GLIBC_2.1                                /lib32/libc.so.6
scalbn                                            /lib32/libc.so.6
scalbn@@GLIBC_2.0                                 /lib32/libc.so.6
scalbn@GLIBC_2.0                                  /lib32/libc.so.6
scalbnf                                           /lib32/libc.so.6
scalbnf@@GLIBC_2.0                                /lib32/libc.so.6
scalbnf@GLIBC_2.0                                 /lib32/libc.so.6
scalbnl                                           /lib32/libc.so.6
scalbnl@@GLIBC_2.0                                /lib32/libc.so.6
scalbnl@GLIBC_2.0                                 /lib32/libc.so.6
sched_active_pid                                  /home/evanosky/workspace/kubos-core/bin/native/core.a(sched.o)
                                                  /home/evanosky/workspace/kubos-core/bin/native/core.a(msg.o)
                                                  /home/evanosky/workspace/kubos-core/bin/native/vtimer.a(vtimer.o)
sched_active_thread                               /home/evanosky/workspace/kubos-core/bin/native/core.a(sched.o)
                                                  /home/evanosky/workspace/kubos-core/bin/native/core.a(msg.o)
                                                  /home/evanosky/workspace/kubos-core/bin/native/cpu.a(syscalls.o)
                                                  /home/evanosky/workspace/kubos-core/bin/native/cpu.a(native_cpu.o)
                                                  /home/evanosky/workspace/kubos-core/bin/native/cpu.a(irq_cpu.o)
                                                  /home/evanosky/workspace/kubos-core/bin/native/core.a(mutex.o)
                                                  /home/evanosky/workspace/kubos-core/bin/native/core.a(thread.o)
sched_context_switch_request                      /home/evanosky/workspace/kubos-core/bin/native/core.a(sched.o)
                                                  /home/evanosky/workspace/kubos-core/bin/native/core.a(msg.o)
                                                  /home/evanosky/workspace/kubos-core/bin/native/cpu.a(native_cpu.o)
sched_get_priority_max                            /lib32/libc.so.6
sched_get_priority_max@@GLIBC_2.0                 /lib32/libc.so.6
sched_get_priority_max@GLIBC_2.0                  /lib32/libc.so.6
sched_get_priority_min                            /lib32/libc.so.6
sched_get_priority_min@@GLIBC_2.0                 /lib32/libc.so.6
sched_get_priority_min@GLIBC_2.0                  /lib32/libc.so.6
sched_getparam                                    /lib32/libc.so.6
sched_getparam@@GLIBC_2.0                         /lib32/libc.so.6
sched_getparam@GLIBC_2.0                          /lib32/libc.so.6
sched_getscheduler                                /lib32/libc.so.6
sched_getscheduler@@GLIBC_2.0                     /lib32/libc.so.6
sched_getscheduler@GLIBC_2.0                      /lib32/libc.so.6
sched_num_threads                                 /home/evanosky/workspace/kubos-core/bin/native/core.a(sched.o)
                                                  /home/evanosky/workspace/kubos-core/bin/native/core.a(thread.o)
sched_rr_get_interval                             /lib32/libc.so.6
sched_rr_get_interval@@GLIBC_2.0                  /lib32/libc.so.6
sched_rr_get_interval@GLIBC_2.0                   /lib32/libc.so.6
sched_run                                         /home/evanosky/workspace/kubos-core/bin/native/core.a(sched.o)
                                                  /home/evanosky/workspace/kubos-core/bin/native/cpu.a(native_cpu.o)
sched_runqueues                                   /home/evanosky/workspace/kubos-core/bin/native/core.a(sched.o)
                                                  /home/evanosky/workspace/kubos-core/bin/native/core.a(thread.o)
sched_set_status                                  /home/evanosky/workspace/kubos-core/bin/native/core.a(sched.o)
                                                  /home/evanosky/workspace/kubos-core/bin/native/core.a(msg.o)
                                                  /home/evanosky/workspace/kubos-core/bin/native/core.a(mutex.o)
                                                  /home/evanosky/workspace/kubos-core/bin/native/core.a(thread.o)
sched_setparam                                    /lib32/libc.so.6
sched_setparam@@GLIBC_2.0                         /lib32/libc.so.6
sched_setparam@GLIBC_2.0                          /lib32/libc.so.6
sched_setscheduler                                /lib32/libc.so.6
sched_setscheduler@@GLIBC_2.0                     /lib32/libc.so.6
sched_setscheduler@GLIBC_2.0                      /lib32/libc.so.6
sched_switch                                      /home/evanosky/workspace/kubos-core/bin/native/core.a(sched.o)
                                                  /home/evanosky/workspace/kubos-core/bin/native/core.a(msg.o)
                                                  /home/evanosky/workspace/kubos-core/bin/native/core.a(mutex.o)
                                                  /home/evanosky/workspace/kubos-core/bin/native/core.a(thread.o)
sched_task_exit                                   /home/evanosky/workspace/kubos-core/bin/native/core.a(sched.o)
                                                  /home/evanosky/workspace/kubos-core/bin/native/cpu.a(native_cpu.o)
sched_threads                                     /home/evanosky/workspace/kubos-core/bin/native/core.a(sched.o)
                                                  /home/evanosky/workspace/kubos-core/bin/native/core.a(msg.o)
                                                  /home/evanosky/workspace/kubos-core/bin/native/core.a(thread.o)
sched_yield                                       /lib32/libc.so.6
sched_yield@@GLIBC_2.0                            /lib32/libc.so.6
sched_yield@GLIBC_2.0                             /lib32/libc.so.6
secure_getenv                                     /lib32/libc.so.6
secure_getenv@@GLIBC_2.17                         /lib32/libc.so.6
secure_getenv@GLIBC_2.17                          /lib32/libc.so.6
seed48_r                                          /lib32/libc.so.6
seed48_r@@GLIBC_2.0                               /lib32/libc.so.6
seed48_r@GLIBC_2.0                                /lib32/libc.so.6
select                                            /lib32/libc.so.6
select@@GLIBC_2.0                                 /lib32/libc.so.6
select@GLIBC_2.0                                  /lib32/libc.so.6
send                                              /lib32/libc.so.6
send@@GLIBC_2.0                                   /lib32/libc.so.6
send@GLIBC_2.0                                    /lib32/libc.so.6
sendmmsg                                          /lib32/libc.so.6
sendmmsg@@GLIBC_2.14                              /lib32/libc.so.6
sendmmsg@GLIBC_2.14                               /lib32/libc.so.6
sendmsg                                           /lib32/libc.so.6
sendmsg@@GLIBC_2.0                                /lib32/libc.so.6
sendmsg@GLIBC_2.0                                 /lib32/libc.so.6
sendto                                            /lib32/libc.so.6
sendto@@GLIBC_2.0                                 /lib32/libc.so.6
sendto@GLIBC_2.0                                  /lib32/libc.so.6
set_signal_handler                                /home/evanosky/workspace/kubos-core/bin/native/cpu.a(irq_cpu.o)
setbuffer                                         /lib32/libc.so.6
setbuffer@@GLIBC_2.0                              /lib32/libc.so.6
setbuffer@GLIBC_2.0                               /lib32/libc.so.6
setcontext                                        /lib32/libc.so.6
                                                  /home/evanosky/workspace/kubos-core/bin/native/cpu.a(native_cpu.o)
setcontext@@GLIBC_2.0                             /lib32/libc.so.6
setcontext@GLIBC_2.0                              /lib32/libc.so.6
setenv                                            /lib32/libc.so.6
setenv@@GLIBC_2.0                                 /lib32/libc.so.6
setenv@GLIBC_2.0                                  /lib32/libc.so.6
setgid                                            /lib32/libc.so.6
setgid@@GLIBC_2.0                                 /lib32/libc.so.6
setgid@GLIBC_2.0                                  /lib32/libc.so.6
setitimer                                         /lib32/libc.so.6
setitimer@@GLIBC_2.0                              /lib32/libc.so.6
setitimer@GLIBC_2.0                               /lib32/libc.so.6
setmntent                                         /lib32/libc.so.6
setmntent@@GLIBC_2.0                              /lib32/libc.so.6
setmntent@GLIBC_2.0                               /lib32/libc.so.6
setpgid                                           /lib32/libc.so.6
setpgid@@GLIBC_2.0                                /lib32/libc.so.6
setpgid@GLIBC_2.0                                 /lib32/libc.so.6
setregid                                          /lib32/libc.so.6
setregid@@GLIBC_2.0                               /lib32/libc.so.6
setregid@GLIBC_2.0                                /lib32/libc.so.6
setresgid                                         /lib32/libc.so.6
setresgid@@GLIBC_2.0                              /lib32/libc.so.6
setresgid@GLIBC_2.0                               /lib32/libc.so.6
setresuid                                         /lib32/libc.so.6
setresuid@@GLIBC_2.0                              /lib32/libc.so.6
setresuid@GLIBC_2.0                               /lib32/libc.so.6
setreuid                                          /lib32/libc.so.6
setreuid@@GLIBC_2.0                               /lib32/libc.so.6
setreuid@GLIBC_2.0                                /lib32/libc.so.6
setsid                                            /lib32/libc.so.6
setsid@@GLIBC_2.0                                 /lib32/libc.so.6
setsid@GLIBC_2.0                                  /lib32/libc.so.6
setstate                                          /lib32/libc.so.6
setstate@@GLIBC_2.0                               /lib32/libc.so.6
setstate@GLIBC_2.0                                /lib32/libc.so.6
setstate_r                                        /lib32/libc.so.6
setstate_r@@GLIBC_2.0                             /lib32/libc.so.6
setstate_r@GLIBC_2.0                              /lib32/libc.so.6
settimeofday                                      /lib32/libc.so.6
settimeofday@@GLIBC_2.0                           /lib32/libc.so.6
settimeofday@GLIBC_2.0                            /lib32/libc.so.6
setuid                                            /lib32/libc.so.6
setuid@@GLIBC_2.0                                 /lib32/libc.so.6
setuid@GLIBC_2.0                                  /lib32/libc.so.6
setutent                                          /lib32/libc.so.6
setutent@@GLIBC_2.0                               /lib32/libc.so.6
setutent@GLIBC_2.0                                /lib32/libc.so.6
setvbuf                                           /lib32/libc.so.6
setvbuf@@GLIBC_2.0                                /lib32/libc.so.6
setvbuf@GLIBC_2.0                                 /lib32/libc.so.6
sgetsgent_r                                       /lib32/libc.so.6
sgetsgent_r@@GLIBC_2.10                           /lib32/libc.so.6
sgetsgent_r@GLIBC_2.10                            /lib32/libc.so.6
sgetspent_r                                       /lib32/libc.so.6
sgetspent_r@@GLIBC_2.0                            /lib32/libc.so.6
sgetspent_r@GLIBC_2.0                             /lib32/libc.so.6
shell_commands                                    /home/evanosky/workspace/kubos-core/bin/native/kubos-core.a(main.o)
shell_init                                        /home/evanosky/workspace/kubos-core/bin/native/shell.a(shell.o)
                                                  /home/evanosky/workspace/kubos-core/bin/native/kubos-core.a(main.o)
shell_run                                         /home/evanosky/workspace/kubos-core/bin/native/shell.a(shell.o)
                                                  /home/evanosky/workspace/kubos-core/bin/native/kubos-core.a(main.o)
shutdown                                          /lib32/libc.so.6
shutdown@@GLIBC_2.0                               /lib32/libc.so.6
shutdown@GLIBC_2.0                                /lib32/libc.so.6
sigaction                                         /lib32/libc.so.6
                                                  /home/evanosky/workspace/kubos-core/bin/native/cpu.a(irq_cpu.o)
sigaction@@GLIBC_2.0                              /lib32/libc.so.6
sigaction@GLIBC_2.0                               /lib32/libc.so.6
sigaddset                                         /lib32/libc.so.6
                                                  /home/evanosky/workspace/kubos-core/bin/native/cpu.a(irq_cpu.o)
sigaddset@@GLIBC_2.0                              /lib32/libc.so.6
sigaddset@GLIBC_2.0                               /lib32/libc.so.6
sigalt_stk                                        /home/evanosky/workspace/kubos-core/bin/native/cpu.a(irq_cpu.o)
sigaltstack                                       /lib32/libc.so.6
                                                  /home/evanosky/workspace/kubos-core/bin/native/cpu.a(irq_cpu.o)
sigaltstack@@GLIBC_2.0                            /lib32/libc.so.6
sigaltstack@GLIBC_2.0                             /lib32/libc.so.6
sigblock                                          /lib32/libc.so.6
sigblock@@GLIBC_2.0                               /lib32/libc.so.6
sigblock@GLIBC_2.0                                /lib32/libc.so.6
sigdelset                                         /lib32/libc.so.6
                                                  /home/evanosky/workspace/kubos-core/bin/native/cpu.a(irq_cpu.o)
sigdelset@@GLIBC_2.0                              /lib32/libc.so.6
sigdelset@GLIBC_2.0                               /lib32/libc.so.6
sigemptyset                                       /lib32/libc.so.6
                                                  /home/evanosky/workspace/kubos-core/bin/native/cpu.a(native_cpu.o)
                                                  /home/evanosky/workspace/kubos-core/bin/native/cpu.a(irq_cpu.o)
sigemptyset@@GLIBC_2.0                            /lib32/libc.so.6
sigemptyset@GLIBC_2.0                             /lib32/libc.so.6
sigfillset                                        /lib32/libc.so.6
                                                  /home/evanosky/workspace/kubos-core/bin/native/cpu.a(irq_cpu.o)
sigfillset@@GLIBC_2.0                             /lib32/libc.so.6
sigfillset@GLIBC_2.0                              /lib32/libc.so.6
sigismember                                       /lib32/libc.so.6
                                                  /home/evanosky/workspace/kubos-core/bin/native/cpu.a(irq_cpu.o)
sigismember@@GLIBC_2.0                            /lib32/libc.so.6
sigismember@GLIBC_2.0                             /lib32/libc.so.6
siglongjmp                                        /lib32/libc.so.6
siglongjmp@@GLIBC_2.0                             /lib32/libc.so.6
siglongjmp@GLIBC_2.0                              /lib32/libc.so.6
signal                                            /lib32/libc.so.6
signal@@GLIBC_2.0                                 /lib32/libc.so.6
signal@GLIBC_2.0                                  /lib32/libc.so.6
sigpause                                          /lib32/libc.so.6
sigpause@@GLIBC_2.0                               /lib32/libc.so.6
sigpause@GLIBC_2.0                                /lib32/libc.so.6
sigpending                                        /lib32/libc.so.6
                                                  /home/evanosky/workspace/kubos-core/bin/native/cpu.a(irq_cpu.o)
sigpending@@GLIBC_2.0                             /lib32/libc.so.6
sigpending@GLIBC_2.0                              /lib32/libc.so.6
sigprocmask                                       /lib32/libc.so.6
                                                  /home/evanosky/workspace/kubos-core/bin/native/cpu.a(irq_cpu.o)
sigprocmask@@GLIBC_2.0                            /lib32/libc.so.6
sigprocmask@GLIBC_2.0                             /lib32/libc.so.6
sigqueue                                          /lib32/libc.so.6
sigqueue@@GLIBC_2.1                               /lib32/libc.so.6
sigqueue@GLIBC_2.1                                /lib32/libc.so.6
sigreturn                                         /lib32/libc.so.6
sigreturn@@GLIBC_2.0                              /lib32/libc.so.6
sigreturn@GLIBC_2.0                               /lib32/libc.so.6
sigsetmask                                        /lib32/libc.so.6
sigsetmask@@GLIBC_2.0                             /lib32/libc.so.6
sigsetmask@GLIBC_2.0                              /lib32/libc.so.6
sigsuspend                                        /lib32/libc.so.6
sigsuspend@@GLIBC_2.0                             /lib32/libc.so.6
sigsuspend@GLIBC_2.0                              /lib32/libc.so.6
sigtimedwait                                      /lib32/libc.so.6
sigtimedwait@@GLIBC_2.1                           /lib32/libc.so.6
sigtimedwait@GLIBC_2.1                            /lib32/libc.so.6
sigvec                                            /lib32/libc.so.6
sigvec@@GLIBC_2.0                                 /lib32/libc.so.6
sigvec@GLIBC_2.0                                  /lib32/libc.so.6
sigwait                                           /lib32/libc.so.6
sigwait@@GLIBC_2.0                                /lib32/libc.so.6
sigwait@GLIBC_2.0                                 /lib32/libc.so.6
sigwaitinfo                                       /lib32/libc.so.6
sigwaitinfo@@GLIBC_2.1                            /lib32/libc.so.6
sigwaitinfo@GLIBC_2.1                             /lib32/libc.so.6
sleep                                             /lib32/libc.so.6
sleep@@GLIBC_2.0                                  /lib32/libc.so.6
sleep@GLIBC_2.0                                   /lib32/libc.so.6
snprintf                                          /lib32/libc.so.6
                                                  /home/evanosky/workspace/kubos-core/bin/native/native_base.a(native-uart0.o)
                                                  /home/evanosky/workspace/kubos-core/bin/native/cpu/startup.o
snprintf@@GLIBC_2.0                               /lib32/libc.so.6
snprintf@GLIBC_2.0                                /lib32/libc.so.6
socket                                            /lib32/libc.so.6
socket@@GLIBC_2.0                                 /lib32/libc.so.6
socket@GLIBC_2.0                                  /lib32/libc.so.6
socketpair                                        /lib32/libc.so.6
socketpair@@GLIBC_2.0                             /lib32/libc.so.6
socketpair@GLIBC_2.0                              /lib32/libc.so.6
sprofil                                           /lib32/libc.so.6
sprofil@@GLIBC_2.2.3                              /lib32/libc.so.6
sprofil@GLIBC_2.2.3                               /lib32/libc.so.6
srand                                             /lib32/libc.so.6
srand48_r                                         /lib32/libc.so.6
srand48_r@@GLIBC_2.0                              /lib32/libc.so.6
srand48_r@GLIBC_2.0                               /lib32/libc.so.6
srand@@GLIBC_2.0                                  /lib32/libc.so.6
srand@GLIBC_2.0                                   /lib32/libc.so.6
srandom                                           /lib32/libc.so.6
srandom@@GLIBC_2.0                                /lib32/libc.so.6
srandom@GLIBC_2.0                                 /lib32/libc.so.6
srandom_r                                         /lib32/libc.so.6
srandom_r@@GLIBC_2.0                              /lib32/libc.so.6
srandom_r@GLIBC_2.0                               /lib32/libc.so.6
ssignal                                           /lib32/libc.so.6
ssignal@@GLIBC_2.0                                /lib32/libc.so.6
ssignal@GLIBC_2.0                                 /lib32/libc.so.6
statfs                                            /lib32/libc.so.6
statfs64                                          /lib32/libc.so.6
statfs64@@GLIBC_2.1                               /lib32/libc.so.6
statfs64@GLIBC_2.1                                /lib32/libc.so.6
statfs@@GLIBC_2.0                                 /lib32/libc.so.6
statfs@GLIBC_2.0                                  /lib32/libc.so.6
statvfs64                                         /lib32/libc.so.6
statvfs64@@GLIBC_2.1                              /lib32/libc.so.6
statvfs64@GLIBC_2.1                               /lib32/libc.so.6
step                                              /lib32/libc.so.6
step@@GLIBC_2.0                                   /lib32/libc.so.6
step@GLIBC_2.0                                    /lib32/libc.so.6
stpcpy                                            /lib32/libc.so.6
stpcpy@@GLIBC_2.0                                 /lib32/libc.so.6
stpcpy@GLIBC_2.0                                  /lib32/libc.so.6
stpncpy                                           /lib32/libc.so.6
stpncpy@@GLIBC_2.0                                /lib32/libc.so.6
stpncpy@GLIBC_2.0                                 /lib32/libc.so.6
strcasecmp                                        /lib32/libc.so.6
strcasecmp@@GLIBC_2.0                             /lib32/libc.so.6
strcasecmp@GLIBC_2.0                              /lib32/libc.so.6
strcasecmp_l                                      /lib32/libc.so.6
strcasecmp_l@@GLIBC_2.3                           /lib32/libc.so.6
strcasecmp_l@GLIBC_2.3                            /lib32/libc.so.6
strcasestr                                        /lib32/libc.so.6
strcasestr@@GLIBC_2.1                             /lib32/libc.so.6
strcasestr@GLIBC_2.1                              /lib32/libc.so.6
strchrnul                                         /lib32/libc.so.6
strchrnul@@GLIBC_2.1.1                            /lib32/libc.so.6
strchrnul@GLIBC_2.1.1                             /lib32/libc.so.6
strcmp                                            /lib32/libc.so.6
                                                  /home/evanosky/workspace/kubos-core/bin/native/shell.a(shell.o)
                                                  /home/evanosky/workspace/kubos-core/bin/native/native_base.a(native-uart0.o)
                                                  /home/evanosky/workspace/kubos-core/bin/native/cpu/startup.o
strcmp@@GLIBC_2.0                                 /lib32/libc.so.6
strcmp@GLIBC_2.0                                  /lib32/libc.so.6
strcoll_l                                         /lib32/libc.so.6
strcoll_l@@GLIBC_2.3                              /lib32/libc.so.6
strcoll_l@GLIBC_2.3                               /lib32/libc.so.6
strdup                                            /lib32/libc.so.6
strdup@@GLIBC_2.0                                 /lib32/libc.so.6
strdup@GLIBC_2.0                                  /lib32/libc.so.6
strerror                                          /lib32/libc.so.6
                                                  /home/evanosky/workspace/kubos-core/bin/native/cpu.a(syscalls.o)
strerror@@GLIBC_2.0                               /lib32/libc.so.6
strerror@GLIBC_2.0                                /lib32/libc.so.6
                                                  /usr/lib/gcc/x86_64-linux-gnu/4.8/../../../../lib32/libdl.so
strerror_r                                        /lib32/libc.so.6
strerror_r@@GLIBC_2.0                             /lib32/libc.so.6
strerror_r@GLIBC_2.0                              /lib32/libc.so.6
strfmon_l                                         /lib32/libc.so.6
strfmon_l@@GLIBC_2.3                              /lib32/libc.so.6
strfmon_l@GLIBC_2.3                               /lib32/libc.so.6
strftime_l                                        /lib32/libc.so.6
strftime_l@@GLIBC_2.3                             /lib32/libc.so.6
strftime_l@GLIBC_2.3                              /lib32/libc.so.6
strlen                                            /lib32/libc.so.6
                                                  /home/evanosky/workspace/kubos-core/bin/native/native_base.a(native-uart0.o)
                                                  /home/evanosky/workspace/kubos-core/bin/native/cpu.a(syscalls.o)
strlen@@GLIBC_2.0                                 /lib32/libc.so.6
strlen@GLIBC_2.0                                  /lib32/libc.so.6
strncasecmp                                       /lib32/libc.so.6
strncasecmp@@GLIBC_2.0                            /lib32/libc.so.6
strncasecmp@GLIBC_2.0                             /lib32/libc.so.6
strncasecmp_l                                     /lib32/libc.so.6
strncasecmp_l@@GLIBC_2.3                          /lib32/libc.so.6
strncasecmp_l@GLIBC_2.3                           /lib32/libc.so.6
strndup                                           /lib32/libc.so.6
strndup@@GLIBC_2.0                                /lib32/libc.so.6
strndup@GLIBC_2.0                                 /lib32/libc.so.6
strnlen                                           /lib32/libc.so.6
strnlen@@GLIBC_2.0                                /lib32/libc.so.6
strnlen@GLIBC_2.0                                 /lib32/libc.so.6
strptime_l                                        /lib32/libc.so.6
strptime_l@@GLIBC_2.3.2                           /lib32/libc.so.6
strptime_l@GLIBC_2.3.2                            /lib32/libc.so.6
strsep                                            /lib32/libc.so.6
strsep@@GLIBC_2.0                                 /lib32/libc.so.6
strsep@GLIBC_2.0                                  /lib32/libc.so.6
strsignal                                         /lib32/libc.so.6
                                                  /home/evanosky/workspace/kubos-core/bin/native/cpu.a(irq_cpu.o)
strsignal@@GLIBC_2.0                              /lib32/libc.so.6
strsignal@GLIBC_2.0                               /lib32/libc.so.6
strtod_l                                          /lib32/libc.so.6
strtod_l@@GLIBC_2.3                               /lib32/libc.so.6
strtod_l@GLIBC_2.3                                /lib32/libc.so.6
strtof_l                                          /lib32/libc.so.6
strtof_l@@GLIBC_2.3                               /lib32/libc.so.6
strtof_l@GLIBC_2.3                                /lib32/libc.so.6
strtok_r                                          /lib32/libc.so.6
strtok_r@@GLIBC_2.0                               /lib32/libc.so.6
strtok_r@GLIBC_2.0                                /lib32/libc.so.6
strtol_l                                          /lib32/libc.so.6
strtol_l@@GLIBC_2.3                               /lib32/libc.so.6
strtol_l@GLIBC_2.3                                /lib32/libc.so.6
strtold_l                                         /lib32/libc.so.6
strtold_l@@GLIBC_2.3                              /lib32/libc.so.6
strtold_l@GLIBC_2.3                               /lib32/libc.so.6
strtoll_l                                         /lib32/libc.so.6
strtoll_l@@GLIBC_2.3                              /lib32/libc.so.6
strtoll_l@GLIBC_2.3                               /lib32/libc.so.6
strtoq                                            /lib32/libc.so.6
strtoq@@GLIBC_2.0                                 /lib32/libc.so.6
strtoq@GLIBC_2.0                                  /lib32/libc.so.6
strtoul_l                                         /lib32/libc.so.6
strtoul_l@@GLIBC_2.3                              /lib32/libc.so.6
strtoul_l@GLIBC_2.3                               /lib32/libc.so.6
strtoull_l                                        /lib32/libc.so.6
strtoull_l@@GLIBC_2.3                             /lib32/libc.so.6
strtoull_l@GLIBC_2.3                              /lib32/libc.so.6
strtouq                                           /lib32/libc.so.6
strtouq@@GLIBC_2.0                                /lib32/libc.so.6
strtouq@GLIBC_2.0                                 /lib32/libc.so.6
strverscmp                                        /lib32/libc.so.6
strverscmp@@GLIBC_2.1                             /lib32/libc.so.6
strverscmp@GLIBC_2.1                              /lib32/libc.so.6
strxfrm_l                                         /lib32/libc.so.6
strxfrm_l@@GLIBC_2.3                              /lib32/libc.so.6
strxfrm_l@GLIBC_2.3                               /lib32/libc.so.6
swapcontext                                       /lib32/libc.so.6
                                                  /home/evanosky/workspace/kubos-core/bin/native/cpu.a(tramp.o)
                                                  /home/evanosky/workspace/kubos-core/bin/native/cpu.a(syscalls.o)
                                                  /home/evanosky/workspace/kubos-core/bin/native/cpu.a(native_cpu.o)
swapcontext@@GLIBC_2.1                            /lib32/libc.so.6
swapcontext@GLIBC_2.1                             /lib32/libc.so.6
swapoff                                           /lib32/libc.so.6
swapoff@@GLIBC_2.0                                /lib32/libc.so.6
swapoff@GLIBC_2.0                                 /lib32/libc.so.6
swapon                                            /lib32/libc.so.6
swapon@@GLIBC_2.0                                 /lib32/libc.so.6
swapon@GLIBC_2.0                                  /lib32/libc.so.6
symlink                                           /lib32/libc.so.6
symlink@@GLIBC_2.0                                /lib32/libc.so.6
symlink@GLIBC_2.0                                 /lib32/libc.so.6
sysconf                                           /lib32/libc.so.6
sysconf@@GLIBC_2.0                                /lib32/libc.so.6
sysconf@GLIBC_2.0                                 /lib32/libc.so.6
sysctl                                            /lib32/libc.so.6
sysctl@@GLIBC_2.0                                 /lib32/libc.so.6
sysctl@GLIBC_2.0                                  /lib32/libc.so.6
system                                            /lib32/libc.so.6
system@@GLIBC_2.0                                 /lib32/libc.so.6
system@GLIBC_2.0                                  /lib32/libc.so.6
sysv_signal                                       /lib32/libc.so.6
sysv_signal@@GLIBC_2.1                            /lib32/libc.so.6
sysv_signal@GLIBC_2.1                             /lib32/libc.so.6
tcdrain                                           /lib32/libc.so.6
tcdrain@@GLIBC_2.0                                /lib32/libc.so.6
tcdrain@GLIBC_2.0                                 /lib32/libc.so.6
tcgetattr                                         /lib32/libc.so.6
tcgetattr@@GLIBC_2.0                              /lib32/libc.so.6
tcgetattr@GLIBC_2.0                               /lib32/libc.so.6
tdelete                                           /lib32/libc.so.6
tdelete@@GLIBC_2.0                                /lib32/libc.so.6
tdelete@GLIBC_2.0                                 /lib32/libc.so.6
tdestroy                                          /lib32/libc.so.6
tdestroy@@GLIBC_2.1                               /lib32/libc.so.6
tdestroy@GLIBC_2.1                                /lib32/libc.so.6
textdomain                                        /lib32/libc.so.6
textdomain@@GLIBC_2.0                             /lib32/libc.so.6
textdomain@GLIBC_2.0                              /lib32/libc.so.6
tfind                                             /lib32/libc.so.6
tfind@@GLIBC_2.0                                  /lib32/libc.so.6
tfind@GLIBC_2.0                                   /lib32/libc.so.6
thread_create                                     /home/evanosky/workspace/kubos-core/bin/native/core.a(thread.o)
                                                  /home/evanosky/workspace/kubos-core/bin/native/uart0.a(uart0.o)
                                                  /home/evanosky/workspace/kubos-core/bin/native/core.a(kernel_init.o)
thread_get                                        /home/evanosky/workspace/kubos-core/bin/native/core.a(thread.o)
thread_getstatus                                  /home/evanosky/workspace/kubos-core/bin/native/core.a(thread.o)
thread_print_stack                                /home/evanosky/workspace/kubos-core/bin/native/cpu.a(native_cpu.o)
thread_sleep                                      /home/evanosky/workspace/kubos-core/bin/native/core.a(thread.o)
thread_stack_init                                 /home/evanosky/workspace/kubos-core/bin/native/cpu.a(native_cpu.o)
                                                  /home/evanosky/workspace/kubos-core/bin/native/core.a(thread.o)
thread_wakeup                                     /home/evanosky/workspace/kubos-core/bin/native/core.a(thread.o)
                                                  /home/evanosky/workspace/kubos-core/bin/native/uart0.a(uart0.o)
                                                  /home/evanosky/workspace/kubos-core/bin/native/vtimer.a(vtimer.o)
thread_yield                                      /home/evanosky/workspace/kubos-core/bin/native/core.a(thread.o)
                                                  /home/evanosky/workspace/kubos-core/bin/native/native_base.a(native-uart0.o)
thread_yield_higher                               /home/evanosky/workspace/kubos-core/bin/native/cpu.a(native_cpu.o)
                                                  /home/evanosky/workspace/kubos-core/bin/native/core.a(msg.o)
                                                  /home/evanosky/workspace/kubos-core/bin/native/core.a(sched.o)
                                                  /home/evanosky/workspace/kubos-core/bin/native/core.a(mutex.o)
                                                  /home/evanosky/workspace/kubos-core/bin/native/core.a(thread.o)
timelocal                                         /lib32/libc.so.6
timelocal@@GLIBC_2.0                              /lib32/libc.so.6
timelocal@GLIBC_2.0                               /lib32/libc.so.6
timeout_handler                                   /home/evanosky/workspace/kubos-core/bin/native/hwtimer_compat.a(hwtimer_arch.o)
timer_clear                                       /home/evanosky/workspace/kubos-core/bin/native/periph.a(timer.o)
                                                  /home/evanosky/workspace/kubos-core/bin/native/hwtimer_compat.a(hwtimer_arch.o)
timer_init                                        /home/evanosky/workspace/kubos-core/bin/native/periph.a(timer.o)
                                                  /home/evanosky/workspace/kubos-core/bin/native/hwtimer_compat.a(hwtimer_arch.o)
timer_irq_disable                                 /home/evanosky/workspace/kubos-core/bin/native/periph.a(timer.o)
                                                  /home/evanosky/workspace/kubos-core/bin/native/hwtimer_compat.a(hwtimer_arch.o)
timer_irq_enable                                  /home/evanosky/workspace/kubos-core/bin/native/periph.a(timer.o)
                                                  /home/evanosky/workspace/kubos-core/bin/native/hwtimer_compat.a(hwtimer_arch.o)
timer_read                                        /home/evanosky/workspace/kubos-core/bin/native/periph.a(timer.o)
                                                  /home/evanosky/workspace/kubos-core/bin/native/hwtimer_compat.a(hwtimer_arch.o)
timer_reset                                       /home/evanosky/workspace/kubos-core/bin/native/periph.a(timer.o)
timer_set                                         /home/evanosky/workspace/kubos-core/bin/native/periph.a(timer.o)
                                                  /home/evanosky/workspace/kubos-core/bin/native/hwtimer_compat.a(hwtimer_arch.o)
timer_set_absolute                                /home/evanosky/workspace/kubos-core/bin/native/periph.a(timer.o)
                                                  /home/evanosky/workspace/kubos-core/bin/native/hwtimer_compat.a(hwtimer_arch.o)
timer_start                                       /home/evanosky/workspace/kubos-core/bin/native/periph.a(timer.o)
timer_stop                                        /home/evanosky/workspace/kubos-core/bin/native/periph.a(timer.o)
times                                             /lib32/libc.so.6
times@@GLIBC_2.0                                  /lib32/libc.so.6
times@GLIBC_2.0                                   /lib32/libc.so.6
timex_add                                         /home/evanosky/workspace/kubos-core/bin/native/timex.a(timex.o)
                                                  /home/evanosky/workspace/kubos-core/bin/native/vtimer.a(vtimer.o)
timex_cmp                                         /home/evanosky/workspace/kubos-core/bin/native/timex.a(timex.o)
timex_set                                         /home/evanosky/workspace/kubos-core/bin/native/timex.a(timex.o)
                                                  /home/evanosky/workspace/kubos-core/bin/native/vtimer.a(vtimer.o)
timex_sub                                         /home/evanosky/workspace/kubos-core/bin/native/timex.a(timex.o)
timezone                                          /lib32/libc.so.6
timezone@@GLIBC_2.0                               /lib32/libc.so.6
timezone@GLIBC_2.0                                /lib32/libc.so.6
tolower_l                                         /lib32/libc.so.6
tolower_l@@GLIBC_2.3                              /lib32/libc.so.6
tolower_l@GLIBC_2.3                               /lib32/libc.so.6
toupper_l                                         /lib32/libc.so.6
toupper_l@@GLIBC_2.3                              /lib32/libc.so.6
toupper_l@GLIBC_2.3                               /lib32/libc.so.6
towctrans                                         /lib32/libc.so.6
towctrans@@GLIBC_2.0                              /lib32/libc.so.6
towctrans@GLIBC_2.0                               /lib32/libc.so.6
towctrans_l                                       /lib32/libc.so.6
towctrans_l@@GLIBC_2.3                            /lib32/libc.so.6
towctrans_l@GLIBC_2.3                             /lib32/libc.so.6
towlower_l                                        /lib32/libc.so.6
towlower_l@@GLIBC_2.3                             /lib32/libc.so.6
towlower_l@GLIBC_2.3                              /lib32/libc.so.6
towupper_l                                        /lib32/libc.so.6
towupper_l@@GLIBC_2.3                             /lib32/libc.so.6
towupper_l@GLIBC_2.3                              /lib32/libc.so.6
truncate                                          /lib32/libc.so.6
truncate@@GLIBC_2.0                               /lib32/libc.so.6
truncate@GLIBC_2.0                                /lib32/libc.so.6
tsearch                                           /lib32/libc.so.6
tsearch@@GLIBC_2.0                                /lib32/libc.so.6
tsearch@GLIBC_2.0                                 /lib32/libc.so.6
ttyname_r                                         /lib32/libc.so.6
ttyname_r@@GLIBC_2.0                              /lib32/libc.so.6
ttyname_r@GLIBC_2.0                               /lib32/libc.so.6
twalk                                             /lib32/libc.so.6
twalk@@GLIBC_2.0                                  /lib32/libc.so.6
twalk@GLIBC_2.0                                   /lib32/libc.so.6
tzname                                            /lib32/libc.so.6
tzname@@GLIBC_2.0                                 /lib32/libc.so.6
tzname@GLIBC_2.0                                  /lib32/libc.so.6
tzset                                             /lib32/libc.so.6
tzset@@GLIBC_2.0                                  /lib32/libc.so.6
tzset@GLIBC_2.0                                   /lib32/libc.so.6
uart0_handle_incoming                             /home/evanosky/workspace/kubos-core/bin/native/uart0.a(uart0.o)
                                                  /home/evanosky/workspace/kubos-core/bin/native/native_base.a(native-uart0.o)
uart0_handler_pid                                 /home/evanosky/workspace/kubos-core/bin/native/uart0.a(uart0.o)
                                                  /home/evanosky/workspace/kubos-core/bin/native/kubos-core.a(main.o)
uart0_notify_thread                               /home/evanosky/workspace/kubos-core/bin/native/uart0.a(uart0.o)
                                                  /home/evanosky/workspace/kubos-core/bin/native/native_base.a(native-uart0.o)
uart0_putc                                        /home/evanosky/workspace/kubos-core/bin/native/uart0.a(uart0.o)
                                                  /home/evanosky/workspace/kubos-core/bin/native/kubos-core.a(main.o)
uart0_puts                                        /home/evanosky/workspace/kubos-core/bin/native/native_base.a(native-uart0.o)
uart0_readc                                       /home/evanosky/workspace/kubos-core/bin/native/uart0.a(uart0.o)
                                                  /home/evanosky/workspace/kubos-core/bin/native/kubos-core.a(main.o)
uart0_ringbuffer                                  /home/evanosky/workspace/kubos-core/bin/native/uart0.a(uart0.o)
ulckpwdf                                          /lib32/libc.so.6
ulckpwdf@@GLIBC_2.0                               /lib32/libc.so.6
ulckpwdf@GLIBC_2.0                                /lib32/libc.so.6
ulimit                                            /lib32/libc.so.6
ulimit@@GLIBC_2.0                                 /lib32/libc.so.6
ulimit@GLIBC_2.0                                  /lib32/libc.so.6
umask                                             /lib32/libc.so.6
umask@@GLIBC_2.0                                  /lib32/libc.so.6
umask@GLIBC_2.0                                   /lib32/libc.so.6
umount                                            /lib32/libc.so.6
umount2                                           /lib32/libc.so.6
umount2@@GLIBC_2.1                                /lib32/libc.so.6
umount2@GLIBC_2.1                                 /lib32/libc.so.6
umount@@GLIBC_2.0                                 /lib32/libc.so.6
umount@GLIBC_2.0                                  /lib32/libc.so.6
uname                                             /lib32/libc.so.6
uname@@GLIBC_2.0                                  /lib32/libc.so.6
uname@GLIBC_2.0                                   /lib32/libc.so.6
ungetc                                            /lib32/libc.so.6
ungetc@@GLIBC_2.0                                 /lib32/libc.so.6
ungetc@GLIBC_2.0                                  /lib32/libc.so.6
unlink                                            /lib32/libc.so.6
unlink@@GLIBC_2.0                                 /lib32/libc.so.6
unlink@GLIBC_2.0                                  /lib32/libc.so.6
unregister_interrupt                              /home/evanosky/workspace/kubos-core/bin/native/cpu.a(irq_cpu.o)
                                                  /home/evanosky/workspace/kubos-core/bin/native/periph.a(timer.o)
unsetenv                                          /lib32/libc.so.6
unsetenv@@GLIBC_2.0                               /lib32/libc.so.6
unsetenv@GLIBC_2.0                                /lib32/libc.so.6
updwtmp                                           /lib32/libc.so.6
updwtmp@@GLIBC_2.0                                /lib32/libc.so.6
updwtmp@GLIBC_2.0                                 /lib32/libc.so.6
usage_exit                                        /home/evanosky/workspace/kubos-core/bin/native/cpu/startup.o
uselocale                                         /lib32/libc.so.6
uselocale@@GLIBC_2.3                              /lib32/libc.so.6
uselocale@GLIBC_2.3                               /lib32/libc.so.6
utimes                                            /lib32/libc.so.6
utimes@@GLIBC_2.0                                 /lib32/libc.so.6
utimes@GLIBC_2.0                                  /lib32/libc.so.6
utmpname                                          /lib32/libc.so.6
utmpname@@GLIBC_2.0                               /lib32/libc.so.6
utmpname@GLIBC_2.0                                /lib32/libc.so.6
valloc                                            /lib32/libc.so.6
valloc@@GLIBC_2.0                                 /lib32/libc.so.6
valloc@GLIBC_2.0                                  /lib32/libc.so.6
vasprintf                                         /lib32/libc.so.6
vasprintf@@GLIBC_2.0                              /lib32/libc.so.6
vasprintf@GLIBC_2.0                               /lib32/libc.so.6
vdprintf                                          /lib32/libc.so.6
vdprintf@@GLIBC_2.0                               /lib32/libc.so.6
vdprintf@GLIBC_2.0                                /lib32/libc.so.6
verr                                              /home/evanosky/workspace/kubos-core/bin/native/cpu.a(syscalls.o)
verr@@GLIBC_2.0                                   /lib32/libc.so.6
verr@GLIBC_2.0                                    /lib32/libc.so.6
verrx                                             /home/evanosky/workspace/kubos-core/bin/native/cpu.a(syscalls.o)
verrx@@GLIBC_2.0                                  /lib32/libc.so.6
verrx@GLIBC_2.0                                   /lib32/libc.so.6
vfork                                             /lib32/libc.so.6
vfork@@GLIBC_2.0                                  /lib32/libc.so.6
vfork@GLIBC_2.0                                   /lib32/libc.so.6
vfscanf                                           /lib32/libc.so.6
vfscanf@@GLIBC_2.0                                /lib32/libc.so.6
vfscanf@GLIBC_2.0                                 /lib32/libc.so.6
vfwprintf                                         /lib32/libc.so.6
vfwprintf@@GLIBC_2.2                              /lib32/libc.so.6
vfwprintf@GLIBC_2.2                               /lib32/libc.so.6
vfwscanf                                          /lib32/libc.so.6
vfwscanf@@GLIBC_2.2                               /lib32/libc.so.6
vfwscanf@GLIBC_2.2                                /lib32/libc.so.6
vprintf                                           /home/evanosky/workspace/kubos-core/bin/native/cpu.a(syscalls.o)
vprintf@@GLIBC_2.0                                /lib32/libc.so.6
vprintf@GLIBC_2.0                                 /lib32/libc.so.6
vscanf                                            /lib32/libc.so.6
vscanf@@GLIBC_2.0                                 /lib32/libc.so.6
vscanf@GLIBC_2.0                                  /lib32/libc.so.6
vsnprintf                                         /lib32/libc.so.6
                                                  /home/evanosky/workspace/kubos-core/bin/native/cpu.a(syscalls.o)
vsnprintf@@GLIBC_2.0                              /lib32/libc.so.6
vsnprintf@GLIBC_2.0                               /lib32/libc.so.6
vsprintf                                          /lib32/libc.so.6
vsprintf@@GLIBC_2.0                               /lib32/libc.so.6
vsprintf@GLIBC_2.0                                /lib32/libc.so.6
vsscanf                                           /lib32/libc.so.6
vsscanf@@GLIBC_2.0                                /lib32/libc.so.6
vsscanf@GLIBC_2.0                                 /lib32/libc.so.6
vswprintf                                         /lib32/libc.so.6
vswprintf@@GLIBC_2.2                              /lib32/libc.so.6
vswprintf@GLIBC_2.2                               /lib32/libc.so.6
vtimer_get_localtime                              /home/evanosky/workspace/kubos-core/bin/native/vtimer.a(vtimer.o)
vtimer_gettimeofday                               /home/evanosky/workspace/kubos-core/bin/native/vtimer.a(vtimer.o)
                                                  /home/evanosky/workspace/kubos-core/bin/native/cpu.a(syscalls.o)
vtimer_init                                       /home/evanosky/workspace/kubos-core/bin/native/vtimer.a(vtimer.o)
                                                  /home/evanosky/workspace/kubos-core/bin/native/auto_init.a(auto_init.o)
vtimer_msg_receive_timeout                        /home/evanosky/workspace/kubos-core/bin/native/vtimer.a(vtimer.o)
vtimer_now                                        /home/evanosky/workspace/kubos-core/bin/native/vtimer.a(vtimer.o)
vtimer_remove                                     /home/evanosky/workspace/kubos-core/bin/native/vtimer.a(vtimer.o)
vtimer_set_msg                                    /home/evanosky/workspace/kubos-core/bin/native/vtimer.a(vtimer.o)
vtimer_set_wakeup                                 /home/evanosky/workspace/kubos-core/bin/native/vtimer.a(vtimer.o)
vtimer_sleep                                      /home/evanosky/workspace/kubos-core/bin/native/vtimer.a(vtimer.o)
vtimer_usleep                                     /home/evanosky/workspace/kubos-core/bin/native/vtimer.a(vtimer.o)
vwarn                                             /home/evanosky/workspace/kubos-core/bin/native/cpu.a(syscalls.o)
vwarn@@GLIBC_2.0                                  /lib32/libc.so.6
vwarn@GLIBC_2.0                                   /lib32/libc.so.6
vwarnx                                            /home/evanosky/workspace/kubos-core/bin/native/cpu.a(syscalls.o)
vwarnx@@GLIBC_2.0                                 /lib32/libc.so.6
vwarnx@GLIBC_2.0                                  /lib32/libc.so.6
wait                                              /lib32/libc.so.6
wait3                                             /lib32/libc.so.6
wait3@@GLIBC_2.0                                  /lib32/libc.so.6
wait3@GLIBC_2.0                                   /lib32/libc.so.6
wait4                                             /lib32/libc.so.6
wait4@@GLIBC_2.0                                  /lib32/libc.so.6
wait4@GLIBC_2.0                                   /lib32/libc.so.6
wait@@GLIBC_2.0                                   /lib32/libc.so.6
wait@GLIBC_2.0                                    /lib32/libc.so.6
waitid                                            /lib32/libc.so.6
waitid@@GLIBC_2.1                                 /lib32/libc.so.6
waitid@GLIBC_2.1                                  /lib32/libc.so.6
waitpid                                           /lib32/libc.so.6
waitpid@@GLIBC_2.0                                /lib32/libc.so.6
waitpid@GLIBC_2.0                                 /lib32/libc.so.6
warn                                              /home/evanosky/workspace/kubos-core/bin/native/cpu.a(syscalls.o)
                                                  /home/evanosky/workspace/kubos-core/bin/native/native_base.a(native-uart0.o)
                                                  /home/evanosky/workspace/kubos-core/bin/native/cpu.a(lpm_cpu.o)
warn@@GLIBC_2.0                                   /lib32/libc.so.6
warn@GLIBC_2.0                                    /lib32/libc.so.6
warnx                                             /home/evanosky/workspace/kubos-core/bin/native/cpu.a(syscalls.o)
                                                  /home/evanosky/workspace/kubos-core/bin/native/native_base.a(native-uart0.o)
                                                  /home/evanosky/workspace/kubos-core/bin/native/cpu.a(irq_cpu.o)
warnx@@GLIBC_2.0                                  /lib32/libc.so.6
warnx@GLIBC_2.0                                   /lib32/libc.so.6
wcpcpy                                            /lib32/libc.so.6
wcpcpy@@GLIBC_2.0                                 /lib32/libc.so.6
wcpcpy@GLIBC_2.0                                  /lib32/libc.so.6
wcpncpy                                           /lib32/libc.so.6
wcpncpy@@GLIBC_2.0                                /lib32/libc.so.6
wcpncpy@GLIBC_2.0                                 /lib32/libc.so.6
wcrtomb                                           /lib32/libc.so.6
wcrtomb@@GLIBC_2.0                                /lib32/libc.so.6
wcrtomb@GLIBC_2.0                                 /lib32/libc.so.6
wcscasecmp                                        /lib32/libc.so.6
wcscasecmp@@GLIBC_2.1                             /lib32/libc.so.6
wcscasecmp@GLIBC_2.1                              /lib32/libc.so.6
wcscasecmp_l                                      /lib32/libc.so.6
wcscasecmp_l@@GLIBC_2.3                           /lib32/libc.so.6
wcscasecmp_l@GLIBC_2.3                            /lib32/libc.so.6
wcscat                                            /lib32/libc.so.6
wcscat@@GLIBC_2.0                                 /lib32/libc.so.6
wcscat@GLIBC_2.0                                  /lib32/libc.so.6
wcschrnul                                         /lib32/libc.so.6
wcschrnul@@GLIBC_2.2                              /lib32/libc.so.6
wcschrnul@GLIBC_2.2                               /lib32/libc.so.6
wcscoll                                           /lib32/libc.so.6
wcscoll@@GLIBC_2.0                                /lib32/libc.so.6
wcscoll@GLIBC_2.0                                 /lib32/libc.so.6
wcscoll_l                                         /lib32/libc.so.6
wcscoll_l@@GLIBC_2.3                              /lib32/libc.so.6
wcscoll_l@GLIBC_2.3                               /lib32/libc.so.6
wcsftime_l                                        /lib32/libc.so.6
wcsftime_l@@GLIBC_2.3                             /lib32/libc.so.6
wcsftime_l@GLIBC_2.3                              /lib32/libc.so.6
wcslen                                            /lib32/libc.so.6
wcslen@@GLIBC_2.0                                 /lib32/libc.so.6
wcslen@GLIBC_2.0                                  /lib32/libc.so.6
wcsncasecmp                                       /lib32/libc.so.6
wcsncasecmp@@GLIBC_2.1                            /lib32/libc.so.6
wcsncasecmp@GLIBC_2.1                             /lib32/libc.so.6
wcsncasecmp_l                                     /lib32/libc.so.6
wcsncasecmp_l@@GLIBC_2.3                          /lib32/libc.so.6
wcsncasecmp_l@GLIBC_2.3                           /lib32/libc.so.6
wcsncpy                                           /lib32/libc.so.6
wcsncpy@@GLIBC_2.0                                /lib32/libc.so.6
wcsncpy@GLIBC_2.0                                 /lib32/libc.so.6
wcsnlen                                           /lib32/libc.so.6
wcsnlen@@GLIBC_2.1                                /lib32/libc.so.6
wcsnlen@GLIBC_2.1                                 /lib32/libc.so.6
wcsnrtombs                                        /lib32/libc.so.6
wcsnrtombs@@GLIBC_2.0                             /lib32/libc.so.6
wcsnrtombs@GLIBC_2.0                              /lib32/libc.so.6
wcsrtombs                                         /lib32/libc.so.6
wcsrtombs@@GLIBC_2.0                              /lib32/libc.so.6
wcsrtombs@GLIBC_2.0                               /lib32/libc.so.6
wcstod_l                                          /lib32/libc.so.6
wcstod_l@@GLIBC_2.3                               /lib32/libc.so.6
wcstod_l@GLIBC_2.3                                /lib32/libc.so.6
wcstof_l                                          /lib32/libc.so.6
wcstof_l@@GLIBC_2.3                               /lib32/libc.so.6
wcstof_l@GLIBC_2.3                                /lib32/libc.so.6
wcstol_l                                          /lib32/libc.so.6
wcstol_l@@GLIBC_2.3                               /lib32/libc.so.6
wcstol_l@GLIBC_2.3                                /lib32/libc.so.6
wcstold_l                                         /lib32/libc.so.6
wcstold_l@@GLIBC_2.3                              /lib32/libc.so.6
wcstold_l@GLIBC_2.3                               /lib32/libc.so.6
wcstoll_l                                         /lib32/libc.so.6
wcstoll_l@@GLIBC_2.3                              /lib32/libc.so.6
wcstoll_l@GLIBC_2.3                               /lib32/libc.so.6
wcstoq                                            /lib32/libc.so.6
wcstoq@@GLIBC_2.0                                 /lib32/libc.so.6
wcstoq@GLIBC_2.0                                  /lib32/libc.so.6
wcstoul_l                                         /lib32/libc.so.6
wcstoul_l@@GLIBC_2.3                              /lib32/libc.so.6
wcstoul_l@GLIBC_2.3                               /lib32/libc.so.6
wcstoull_l                                        /lib32/libc.so.6
wcstoull_l@@GLIBC_2.3                             /lib32/libc.so.6
wcstoull_l@GLIBC_2.3                              /lib32/libc.so.6
wcstouq                                           /lib32/libc.so.6
wcstouq@@GLIBC_2.0                                /lib32/libc.so.6
wcstouq@GLIBC_2.0                                 /lib32/libc.so.6
wcswcs                                            /lib32/libc.so.6
wcswcs@@GLIBC_2.1                                 /lib32/libc.so.6
wcswcs@GLIBC_2.1                                  /lib32/libc.so.6
wcsxfrm_l                                         /lib32/libc.so.6
wcsxfrm_l@@GLIBC_2.3                              /lib32/libc.so.6
wcsxfrm_l@GLIBC_2.3                               /lib32/libc.so.6
wctrans                                           /lib32/libc.so.6
wctrans@@GLIBC_2.0                                /lib32/libc.so.6
wctrans@GLIBC_2.0                                 /lib32/libc.so.6
wctrans_l                                         /lib32/libc.so.6
wctrans_l@@GLIBC_2.3                              /lib32/libc.so.6
wctrans_l@GLIBC_2.3                               /lib32/libc.so.6
wctype                                            /lib32/libc.so.6
wctype@@GLIBC_2.0                                 /lib32/libc.so.6
wctype@GLIBC_2.0                                  /lib32/libc.so.6
wctype_l                                          /lib32/libc.so.6
wctype_l@@GLIBC_2.3                               /lib32/libc.so.6
wctype_l@GLIBC_2.3                                /lib32/libc.so.6
wmemcpy                                           /lib32/libc.so.6
wmemcpy@@GLIBC_2.0                                /lib32/libc.so.6
wmemcpy@GLIBC_2.0                                 /lib32/libc.so.6
wmemmove                                          /lib32/libc.so.6
wmemmove@@GLIBC_2.0                               /lib32/libc.so.6
wmemmove@GLIBC_2.0                                /lib32/libc.so.6
wmempcpy                                          /lib32/libc.so.6
wmempcpy@@GLIBC_2.2                               /lib32/libc.so.6
wmempcpy@GLIBC_2.2                                /lib32/libc.so.6
write                                             /lib32/libc.so.6
write@@GLIBC_2.0                                  /lib32/libc.so.6
write@GLIBC_2.0                                   /lib32/libc.so.6
writev                                            /lib32/libc.so.6
writev@@GLIBC_2.0                                 /lib32/libc.so.6
writev@GLIBC_2.0                                  /lib32/libc.so.6
